;Disassembled from
; https://www.9track.net/roms/files/dec/vs100/23-288E4.bin
; https://www.9track.net/roms/files/dec/vs100/23-289E4.bin
; Imaged by Matt Burke.

180000:	0001ffc0 ;reset sp
180004:	00180ff4 ;reset pc
180008:	001802f4 ;bus error
18000c:	0018032c ;address error
180010:	00180334 ;illegal instruction
180014:	0018050a
180018:	0018050a
18001c:	0018050a
180020:	0018050a
180024:	0018050a
180028:	0018050a
18002c:	0018050a
180030:	0018050a
180034:	0018050a
180038:	0018050a
18003c:	0018050a
180040:	0018050a
180044:	0018050a
180048:	0018050a
18004c:	0018050a
180050:	0018050a
180054:	0018050a
180058:	0018050a
18005c:	0018050a
180060:	0018050a
180064:	0018050a
180068:	0018033c ;irq2, keyboard
18006c:	0018041c ;      tablet
180070:	001804a2 ;      bba done
180074:	001804ae ;      link
180078:	001804ba ;      vsync
18007c:	00180502 ;irq7, bba nxm
180080:	00180ff4 ;trap0
180084:	00181d66 ;trap1, or host interrupt?

180088:	48e7 4000      	          moveml %d1,%sp@-
18008c:	123c 0011      	          moveb #17,%d1
180090:	613e           	          bsrs 0x1800d0 ;Send to keyboard.
180092:	123c 008f      	          moveb #-113,%d1
180096:	6028           	          bras 0x1800c0 ;Send to tablet.
180098:	48e7 4000      	          moveml %d1,%sp@-
18009c:	123c 0013      	          moveb #19,%d1
1800a0:	612e           	          bsrs 0x1800d0 ;Send to keyboard.
1800a2:	1200           	          moveb %d0,%d1
1800a4:	0201 000f      	          andib #15,%d1
1800a8:	0001 0080      	          orib #-128,%d1
1800ac:	6012           	          bras 0x1800c0 ;Send to tablet.
1800ae:	48e7 4000      	          moveml %d1,%sp@-
1800b2:	123c 00a7      	          moveb #-89,%d1
1800b6:	6008           	          bras 0x1800c0 ;Send to tablet.
1800b8:	48e7 4000      	          moveml %d1,%sp@-
1800bc:	123c 008b      	          moveb #0x8B,%d1
1800c0:	610e           	          bsrs 0x1800d0 ;Send to keyboard.
1800c2:	08f9 0000 0080 0007       bset #0,0x800007
1800ca:	4cdf 0002      	          moveml %sp@+,%d1
1800ce:	4e75           	          rts

;Enter data into keyboard fifo.
1800d0:	0c39 0010 0001 fff6       cmpib #16,0x1fff6
1800d8:	6c2a           	          bges 0x180104
1800da:	5239 0001 fff6 	          addqb #1,0x1fff6
1800e0:	48e7 0080      	          moveml %a0,%sp@-
1800e4:	2079 0001 ffc4 	          moveal 0x1ffc4,%a0
1800ea:	b1fc 0001 ffe6 	          cmpal #131046,%a0
1800f0:	6d06           	          blts 0x1800f8
1800f2:	207c 0001 ffd6 	          moveal #131030,%a0
1800f8:	10c1           	          moveb %d1,%a0@+
1800fa:	23c8 0001 ffc4 	          movel %a0,0x1ffc4
180100:	4cdf 0100      	          moveml %sp@+,%a0
180104:	4e75           	          rts

;Enter data into tablet fifo.
180106:	0c39 0010 0001 fff7       cmpib #16,0x1fff7
18010e:	6c2a           	          bges 0x18013a
180110:	5239 0001 fff7 	          addqb #1,0x1fff7
180116:	48e7 0080      	          moveml %a0,%sp@-
18011a:	2079 0001 ffcc 	          moveal 0x1ffcc,%a0
180120:	b1fc 0001 fff6 	          cmpal #131062,%a0
180126:	6d06           	          blts 0x18012e
180128:	207c 0001 ffe6 	          moveal #131046,%a0
18012e:	10c1           	          moveb %d1,%a0@+
180130:	23c8 0001 ffcc 	          movel %a0,0x1ffcc
180136:	4cdf 0100      	          moveml %sp@+,%a0
18013a:	4e75           	          rts

; check link status
18013c:	0839 0004 0080 00c1       btst #4,0x8000c1 ;status - link available
180144:	6734           	          beqs 0x18017a
180146:	48e7 4080      	          moveml %d1/%a0,%sp@-
18014a:	0800 0012      	          btst #18,%d0 ;link down?
18014e:	6714           	          beqs 0x180164
180150:	0800 0016      	          btst #22,%d0 ;maint menu?
180154:	660e           	          bnes 0x180164
180156:	207c 0018 0530 	          moveal #0x180530,%a0 ;login icon
18015c:	6100 0e28      	          bsrw 0x180f86 ;draw
180160:	0880 0012      	          bclr #18,%d0
180164:	13fc 0001 0080 0041       moveb #1,0x800041 ;fibre normal
18016c:	323c 0230      	          movew #560,%d1
180170:	51c9 fffe      	          dbf %d1,0x180170
180174:	4cdf 0102      	          moveml %sp@+,%d1/%a0
180178:	4e75           	          rts

;link down
18017a:	48e7 4000      	          moveml %d1,%sp@-
18017e:	13fc 0000 0080 0041       moveb #0,0x800041 ;fibre control
180186:	323c 0230      	          movew #560,%d1
18018a:	51c9 fffe      	          dbf %d1,0x18018a
18018e:	4cdf 0002      	          moveml %sp@+,%d1
180192:	4e75           	          rts

;mouse pointer
180194:	0100 0380
180198:	07c0 0fe0
18019c:	1ff0 3ff8
1801a0:	0380 0380
1801a4:	0380 0380
1801a8:	0380 0380
1801ac:	0380 0380
1801b0:	0380 0380

;Compute mouse pointer address on screen.
; Uses the old mouse coordinates in C4,C6.
; Outputs:
;  a0 - address
;  d4 - bit offset
1801b4:	3239 0000 00c4 	          movew 0xc4,%d1
1801ba:	3439 0000 00c6 	          movew 0xc6,%d2
1801c0:	3601           	          movew %d1,%d3
1801c2:	0243 000f      	          andiw #15,%d3
1801c6:	383c 0010      	          movew #16,%d4
1801ca:	9843           	          subw %d3,%d4   ;bit offset in d4
1801cc:	207c 0010 0000 	          moveal #0x100000,%a0
1801d2:	e841           	          asrw #4,%d1
1801d4:	e341           	          aslw #1,%d1
1801d6:	d0c1           	          addaw %d1,%a0  ;+ word address
1801d8:	c5fc 0088      	          mulsw #136,%d2
1801dc:	d1c2           	          addal %d2,%a0  ;+ y*136
1801de:	4e75           	          rts

;mouse
; Memory locations:
; C0, C2 - hardware x, y
; C4, C6 - previous x, y
; C8, CA - new x, y
1801e0:	48e7 78c0      	          moveml %d1-%d4/%a0-%a1,%sp@-
1801e4:	3239 0080 0060 	          movew 0x800060,%d1 ;mouse y,x from hardware
1801ea:	3401           	          movew %d1,%d2
1801ec:	0241 00ff      	          andiw #255,%d1
1801f0:	3601           	          movew %d1,%d3
1801f2:	9679 0000 00c0 	          subw 0xc0,%d3 ;subtract previous x
1801f8:	4883           	          extw %d3
1801fa:	33c1 0000 00c0 	          movew %d1,0xc0 ;save hardware x
180200:	c7fc 0007      	          mulsw #7,%d3
180204:	87fc 0002      	          divsw #2,%d3 ;scale up 7/2
180208:	d779 0000 00c8 	          addw %d3,0xc8 ;add to accumulated x
18020e:	e04a           	          lsrw #8,%d2
180210:	3602           	          movew %d2,%d3
180212:	9679 0000 00c2 	          subw 0xc2,%d3
180218:	4883           	          extw %d3
18021a:	33c2 0000 00c2 	          movew %d2,0xc2 ;save hardware y
180220:	c7fc 0007      	          mulsw #7,%d3
180224:	87fc 0002      	          divsw #2,%d3
180228:	9779 0000 00ca 	          subw %d3,0xca ;subtract from accumulated y
18022e:	3239 0000 00c4 	          movew 0xc4,%d1
180234:	b279 0000 00c8 	          cmpw 0xc8,%d1 ;did x change?
18023a:	660e           	          bnes 0x18024a
18023c:	3239 0000 00c6 	          movew 0xc6,%d1
180242:	b279 0000 00ca 	          cmpw 0xca,%d1 ;did y change?
180248:	6720           	          beqs 0x18026a
18024a:	6100 ff68      	          bsrw 0x1801b4 ;mouse screen address to a0
18024e:	227c 0000 0080 	          moveal #0x80,%a1
180254:	323c 000f      	          movew #15,%d1
180258:	30d9           	          movew %a1@+,%a0@+ ;Restore screen
18025a:	3099           	          movew %a1@+,%a0@  ;under mouse pointer.
18025c:	d1fc 0000 0086 	          addal #134,%a0
180262:	51c9 fff4      	          dbf %d1,0x180258
180266:	6100 0008      	          bsrw 0x180270 ;draw mouse pointer
18026a:	4cdf 031e      	          moveml %sp@+,%d1-%d4/%a0-%a1
18026e:	4e75           	          rts

;Draw mouse pointer.
; Takes new coordinates from C8,CA and ensures they are
; inside bounds 0-1072, 0-848.  Stores back result and makes
; copies to C4,C6.
180270:	48e7 78e0      	          moveml %d1-%d4/%a0-%a2,%sp@-
180274:	3239 0000 00c8 	          movew 0xc8,%d1
18027a:	6a04           	          bpls 0x180280
18027c:	4241           	          clrw %d1
18027e:	600a           	          bras 0x18028a
180280:	343c 0430      	          movew #1072,%d2
180284:	b441           	          cmpw %d1,%d2
180286:	6e08           	          bgts 0x180290
180288:	3202           	          movew %d2,%d1
18028a:	33c1 0000 00c8 	          movew %d1,0xc8
180290:	33c1 0000 00c4 	          movew %d1,0xc4
180296:	3439 0000 00ca 	          movew 0xca,%d2
18029c:	6a04           	          bpls 0x1802a2
18029e:	4242           	          clrw %d2
1802a0:	600a           	          bras 0x1802ac
1802a2:	323c 0350      	          movew #848,%d1
1802a6:	b242           	          cmpw %d2,%d1
1802a8:	6e08           	          bgts 0x1802b2
1802aa:	3401           	          movew %d1,%d2
1802ac:	33c2 0000 00ca 	          movew %d2,0xca
1802b2:	33c2 0000 00c6 	          movew %d2,0xc6
1802b8:	6100 fefa      	          bsrw 0x1801b4
1802bc:	227c 0018 0194 	          moveal #0x180194,%a1 ;mouse pointer
1802c2:	247c 0000 0080 	          moveal #0x80,%a2
1802c8:	323c 000f      	          movew #15,%d1 ;Save screen under
1802cc:	34d0           	          movew %a0@,%a2@+ ;mouse pointer.
1802ce:	3411           	          movew %a1@,%d2
1802d0:	e76a           	          lslw %d3,%d2
1802d2:	4642           	          notw %d2
1802d4:	c558           	          andw %d2,%a0@+
1802d6:	34d0           	          movew %a0@,%a2@+
1802d8:	3419           	          movew %a1@+,%d2
1802da:	4a04           	          tstb %d4
1802dc:	6706           	          beqs 0x1802e4
1802de:	e86a           	          lsrw %d4,%d2
1802e0:	4642           	          notw %d2
1802e2:	c550           	          andw %d2,%a0@
1802e4:	d1fc 0000 0086 	          addal #134,%a0
1802ea:	51c9 ffe0      	          dbf %d1,0x1802cc
1802ee:	4cdf 071e      	          moveml %sp@+,%d1-%d4/%a0-%a2
1802f2:	4e75           	          rts

bus_error:
1802f4:	0839 0002 0080 00c1       btst #2,0x8000c1 ;NXM?
1802fc:	6706           	          beqs 0x180304
1802fe:	303c 8003      	          movew #-32765,%d0
180302:	6024           	          bras 0x180328
180304:	0839 0003 0080 00c1       btst #3,0x8000c1 ;retry overflow?
18030c:	6706           	          beqs 0x180314
18030e:	303c 8004      	          movew #-32764,%d0
180312:	6014           	          bras 0x180328
180314:	0839 0004 0080 00c1       btst #4,0x8000c1 ;link available?
18031c:	6606           	          bnes 0x180324
18031e:	303c 8005      	          movew #-32763,%d0
180322:	6004           	          bras 0x180328
180324:	303c 8006      	          movew #-32762,%d0
180328:	6000 01e4      	          braw 0x18050e
address_error:
18032c:	303c 8007      	          movew #-32761,%d0
180330:	6000 01dc      	          braw 0x18050e
illegal_instruction:
180334:	303c 8009      	          movew #-32759,%d0
180338:	6000 01d4      	          braw 0x18050e

irq2_handler:
18033c:	48e7 60c0      	          moveml %d1-%d2/%a0-%a1,%sp@-
180340:	207c 0080 0001 	          moveal #0x800001,%a0
180346:	0828 0000 0002 	          btst #0,%a0@(2) ;tx rdy?
18034c:	6738           	          beqs 0x180386
18034e:	4a39 0001 fff6 	          tstb 0x1fff6
180354:	6726           	          beqs 0x18037c
180356:	5339 0001 fff6 	          subqb #1,0x1fff6
18035c:	2279 0001 ffc0 	          moveal 0x1ffc0,%a1
180362:	b3fc 0001 ffe6 	          cmpal #131046,%a1
180368:	6d06           	          blts 0x180370
18036a:	227c 0001 ffd6 	          moveal #131030,%a1
180370:	1099           	          moveb %a1@+,%a0@ ;tx char
180372:	23c9 0001 ffc0 	          movel %a1,0x1ffc0
180378:	6000 009c      	          braw 0x180416
18037c:	08a8 0000 0006 	          bclr #0,%a0@(6)
180382:	6000 0092      	          braw 0x180416
180386:	0828 0001 0002 	          btst #1,%a0@(2) ;rx rdy?
18038c:	6700 017c      	          beqw 0x18050a
180390:	1210           	          moveb %a0@,%d1 ;rx char
180392:	1428 0002      	          moveb %a0@(2),%d2 ;status
180396:	0802 0004      	          btst #4,%d2       ;overrun?
18039a:	6606           	          bnes 0x1803a2
18039c:	0802 0005      	          btst #5,%d2 ;frame error?
1803a0:	6708           	          beqs 0x1803aa
1803a2:	08e8 0004 0006 	          bset #4,%a0@(6) ;command, reset error
1803a8:	606c           	          bras 0x180416
1803aa:	0241 00ff      	          andiw #255,%d1
1803ae:	0c41 00b3      	          cmpiw #0xB3,%d1
1803b2:	6e5c           	          bgts 0x180410  ;codes>0xB3 are stored as is
1803b4:	6608           	          bnes 0x1803be
1803b6:	4239 0001 fffb 	          clrb 0x1fffb   ;0xB3 all keys up
1803bc:	6058           	          bras 0x180416
1803be:	0c41 00af      	          cmpiw #0xAF,%d1
1803c2:	660a           	          bnes 0x1803ce
1803c4:	0a39 0001 0001 fffb       eorib #1,0x1fffb ;0xAF (CTRL)
1803cc:	6048           	          bras 0x180416
1803ce:	0c41 00ae      	          cmpiw #0xAE,%d1
1803d2:	660a           	          bnes 0x1803de
1803d4:	0a39 0002 0001 fffb       eorib #2,0x1fffb ;0xAE (Shift)
1803dc:	6038           	          bras 0x180416
1803de:	0c01 00b7      	          cmpib #0xB7,%d1
1803e2:	6606           	          bnes 0x1803ea
1803e4:	6100 fcd2      	          bsrw 0x1800b8   ;0xB7 (KBD Locked ack)
1803e8:	602c           	          bras 0x180416
1803ea:	0c41 0059      	          cmpiw #0x59,%d1 ;0x59 (F4/Setup)
1803ee:	6620           	          bnes 0x180410   ;others are stored as is
1803f0:	4a39 0001 fffb 	          tstb 0x1fffb    ;something stored?
1803f6:	660a           	          bnes 0x180402
1803f8:	0800 0016      	          btst #22,%d0
1803fc:	6718           	          beqs 0x180416
1803fe:	6000 0bf4      	          braw 0x180ff4 ;start
180402:	0c39 0003 0001 fffb       cmpib #3,0x1fffb ;0x03
18040a:	6700 2a86      	          beqw 0x182e92 ;enter maint menu
18040e:	6006           	          bras 0x180416
180410:	13c1 0001 fff9 	          moveb %d1,0x1fff9 ;keypress
180416:	4cdf 0306      	          moveml %sp@+,%d1-%d2/%a0-%a1
18041a:	4e73           	          rte

irq3_handler:
18041c:	48e7 60c0      	          moveml %d1-%d2/%a0-%a1,%sp@-
180420:	207c 0080 0021 	          moveal #8388641,%a0
180426:	0828 0000 0002 	          btst #0,%a0@(2)
18042c:	6734           	          beqs 0x180462
18042e:	4a39 0001 fff7 	          tstb 0x1fff7
180434:	6724           	          beqs 0x18045a
180436:	5339 0001 fff7 	          subqb #1,0x1fff7
18043c:	2279 0001 ffc8 	          moveal 0x1ffc8,%a1
180442:	b3fc 0001 fff6 	          cmpal #131062,%a1
180448:	6d06           	          blts 0x180450
18044a:	227c 0001 ffe6 	          moveal #131046,%a1
180450:	1099           	          moveb %a1@+,%a0@
180452:	23c9 0001 ffc8 	          movel %a1,0x1ffc8
180458:	6042           	          bras 0x18049c
18045a:	08a8 0000 0006 	          bclr #0,%a0@(6)
180460:	603a           	          bras 0x18049c
180462:	0828 0001 0002 	          btst #1,%a0@(2)
180468:	6700 00a0      	          beqw 0x18050a
18046c:	1210           	          moveb %a0@,%d1
18046e:	1428 0002      	          moveb %a0@(2),%d2
180472:	0802 0004      	          btst #4,%d2
180476:	6606           	          bnes 0x18047e
180478:	0802 0005      	          btst #5,%d2
18047c:	6708           	          beqs 0x180486
18047e:	08e8 0004 0006 	          bset #4,%a0@(6)
180484:	6016           	          bras 0x18049c
180486:	0c01 003e      	          cmpib #62,%d1
18048a:	6606           	          bnes 0x180492
18048c:	08c0 0017      	          bset #23,%d0
180490:	600a           	          bras 0x18049c
180492:	e309           	          lslb #1,%d1
180494:	6406           	          bccs 0x18049c
180496:	13c1 0001 fffa 	          moveb %d1,0x1fffa
18049c:	4cdf 0306      	          moveml %sp@+,%d1-%d2/%a0-%a1
1804a0:	4e73           	          rte

irq4_handler:                     ;bba done
1804a2:	08c0 0018      	          bset #24,%d0
1804a6:	4239 0028 0000 	          clrb 0x280000
1804ac:	4e73           	          rte

irq5_handler:                     ;link
1804ae:	6100 fc8c      	          bsrw 0x18013c
1804b2:	4a39 0080 00c0 	          tstb 0x8000c0
1804b8:	4e73           	          rte

irq6_handler:			  ;vsync
1804ba:	4a79 0001 ffd4 	          tstw 0x1ffd4  ;check timeout
1804c0:	6714           	          beqs 0x1804d6
1804c2:	6b32           	          bmis 0x1804f6
1804c4:	5379 0001 ffd4 	          subqw #1,0x1ffd4
1804ca:	662a           	          bnes 0x1804f6
1804cc:	33fc ffff 0001 ffd4       movew #-1,0x1ffd4
1804d4:	6020           	          bras 0x1804f6
1804d6:	0800 0013      	          btst #19,%d0
1804da:	661a           	          bnes 0x1804f6
1804dc:	48e7 4000      	          moveml %d1,%sp@-
1804e0:	1239 0080 00c1 	          moveb 0x8000c1,%d1 ;status
1804e6:	4601           	          notb %d1
1804e8:	ea09           	          lsrb #5,%d1
1804ea:	6706           	          beqs 0x1804f2
1804ec:	13c1 0001 fff8 	          moveb %d1,0x1fff8 ;mouse buttons
1804f2:	4cdf 0002      	          moveml %sp@+,%d1
1804f6:	08c0 0019      	          bset #25,%d0 ;signal vsync
1804fa:	4a39 0080 00e1 	          tstb 0x8000e1 ;clear interrupt
180500:	4e73           	          rte

irq7_handler:
180502:	303c 800a      	          movew #-32758,%d0
180506:	6000 0006      	          braw 0x18050e
spurious_hander:
18050a:	303c 8008      	          movew #-32760,%d0
18050e:	0800 0010      	          btst #16,%d0
180512:	6700 0efa      	          beqw 0x18140e
180516:	13fc 0010 0080 0081       moveb #0x10,0x800081 ;LED RRRR-
18051e:	60fe           	          bras 0x18051e

crtc_data:
180520:	2d22           	          movel %a2@-,%fp@-
180522:	2506           	          movel %d6,%a2@-
180524:	4a05           	          tstb %d5
180526:	4848           	          .short 0x4848
180528:	000b           	          .short 0x000b
18052a:	0000 0000      	          orib #0,%d0
18052e:	0000

;icon: login "hand and mouse"
180530: a071      	          orib #113,%d0
180532:	029e 029d 029e 	          andil #43844254,%fp@+
180538:	029e 029d 029e 	          andil #43844254,%fp@+
18053e:	029e 029d 029e 	          andil #43844254,%fp@+
180544:	029e 029e 029e 	          andil #43909790,%fp@+
18054a:	029e 0272 5946 	          andil #41048390,%fp@+
180550:	5a45           	          addqw #5,%d5
180552:	0554           	          bchg %d2,%a4@
180554:	0244 0202      	          andiw #514,%d4
180558:	0254 0243      	          andiw #579,%a4@
18055c:	0203 0254      	          andib #84,%d3
180560:	0242 0204      	          andiw #516,%d2
180564:	0254 0241      	          andiw #577,%a4@
180568:	0205 0254      	          andib #84,%d5
18056c:	0240 0206      	          andiw #518,%d0
180570:	0254 023f      	          andiw #575,%a4@
180574:	0207 0254      	          andib #84,%d7
180578:	023e           	          .short 0x023e
18057a:	0208           	          .short 0x0208
18057c:	0254 023d      	          andiw #573,%a4@
180580:	0209           	          .short 0x0209
180582:	0254 023c      	          andiw #572,%a4@
180586:	020a           	          .short 0x020a
180588:	0254 023b      	          andiw #571,%a4@
18058c:	020b           	          .short 0x020b
18058e:	0208           	          .short 0x0208
180590:	100a           	          .short 0x100a
180592:	100a           	          .short 0x100a
180594:	1008           	          .short 0x1008
180596:	023b           	          .short 0x023b
180598:	020b           	          .short 0x020b
18059a:	0208           	          .short 0x0208
18059c:	100a           	          .short 0x100a
18059e:	100a           	          .short 0x100a
1805a0:	1008           	          .short 0x1008
1805a2:	023b           	          .short 0x023b
1805a4:	020b           	          .short 0x020b
1805a6:	0208           	          .short 0x0208
1805a8:	100a           	          .short 0x100a
1805aa:	100a           	          .short 0x100a
1805ac:	1008           	          .short 0x1008
1805ae:	023b           	          .short 0x023b
1805b0:	020b           	          .short 0x020b
1805b2:	0208           	          .short 0x0208
1805b4:	100a           	          .short 0x100a
1805b6:	100a           	          .short 0x100a
1805b8:	1008           	          .short 0x1008
1805ba:	023b           	          .short 0x023b
1805bc:	020b           	          .short 0x020b
1805be:	0208           	          .short 0x0208
1805c0:	100a           	          .short 0x100a
1805c2:	100a           	          .short 0x100a
1805c4:	1008           	          .short 0x1008
1805c6:	023b           	          .short 0x023b
1805c8:	020b           	          .short 0x020b
1805ca:	0208           	          .short 0x0208
1805cc:	100a           	          .short 0x100a
1805ce:	100a           	          .short 0x100a
1805d0:	1008           	          .short 0x1008
1805d2:	023b           	          .short 0x023b
1805d4:	020b           	          .short 0x020b
1805d6:	0208           	          .short 0x0208
1805d8:	100a           	          .short 0x100a
1805da:	100a           	          .short 0x100a
1805dc:	1008           	          .short 0x1008
1805de:	023b           	          .short 0x023b
1805e0:	020b           	          .short 0x020b
1805e2:	0208           	          .short 0x0208
1805e4:	100a           	          .short 0x100a
1805e6:	100a           	          .short 0x100a
1805e8:	1008           	          .short 0x1008
1805ea:	023b           	          .short 0x023b
1805ec:	020b           	          .short 0x020b
1805ee:	0208           	          .short 0x0208
1805f0:	100a           	          .short 0x100a
1805f2:	100a           	          .short 0x100a
1805f4:	1008           	          .short 0x1008
1805f6:	023b           	          .short 0x023b
1805f8:	020b           	          .short 0x020b
1805fa:	0208           	          .short 0x0208
1805fc:	100a           	          .short 0x100a
1805fe:	100a           	          .short 0x100a
180600:	1008           	          .short 0x1008
180602:	023b           	          .short 0x023b
180604:	020b           	          .short 0x020b
180606:	0208           	          .short 0x0208
180608:	100a           	          .short 0x100a
18060a:	100a           	          .short 0x100a
18060c:	1008           	          .short 0x1008
18060e:	023b           	          .short 0x023b
180610:	020b           	          .short 0x020b
180612:	0208           	          .short 0x0208
180614:	100a           	          .short 0x100a
180616:	100a           	          .short 0x100a
180618:	1008           	          .short 0x1008
18061a:	023b           	          .short 0x023b
18061c:	020b           	          .short 0x020b
18061e:	0208           	          .short 0x0208
180620:	100a           	          .short 0x100a
180622:	100a           	          .short 0x100a
180624:	1008           	          .short 0x1008
180626:	023b           	          .short 0x023b
180628:	020b           	          .short 0x020b
18062a:	0208           	          .short 0x0208
18062c:	100a           	          .short 0x100a
18062e:	100a           	          .short 0x100a
180630:	1008           	          .short 0x1008
180632:	023b           	          .short 0x023b
180634:	020b           	          .short 0x020b
180636:	0208           	          .short 0x0208
180638:	100a           	          .short 0x100a
18063a:	100a           	          .short 0x100a
18063c:	1008           	          .short 0x1008
18063e:	023b           	          .short 0x023b
180640:	020b           	          .short 0x020b
180642:	0208           	          .short 0x0208
180644:	100a           	          .short 0x100a
180646:	100a           	          .short 0x100a
180648:	1008           	          .short 0x1008
18064a:	023b           	          .short 0x023b
18064c:	020b           	          .short 0x020b
18064e:	0208           	          .short 0x0208
180650:	0605 050a      	          addib #10,%d5
180654:	100a           	          .short 0x100a
180656:	1008           	          .short 0x1008
180658:	023b           	          .short 0x023b
18065a:	020b           	          .short 0x020b
18065c:	0208           	          .short 0x0208
18065e:	0408           	          .short 0x0408
180660:	040a           	          .short 0x040a
180662:	100a           	          .short 0x100a
180664:	1008           	          .short 0x1008
180666:	023b           	          .short 0x023b
180668:	020b           	          .short 0x020b
18066a:	0208           	          .short 0x0208
18066c:	0309 040a      	          movepw %a1@(1034),%d1
180670:	100a           	          .short 0x100a
180672:	1008           	          .short 0x1008
180674:	023b           	          .short 0x023b
180676:	020b           	          .short 0x020b
180678:	0207 020b      	          andib #11,%d7
18067c:	040a           	          .short 0x040a
18067e:	100a           	          .short 0x100a
180680:	1008           	          .short 0x1008
180682:	023b           	          .short 0x023b
180684:	020b           	          .short 0x020b
180686:	0206 030b      	          andib #11,%d6
18068a:	040a           	          .short 0x040a
18068c:	100a           	          .short 0x100a
18068e:	1008           	          .short 0x1008
180690:	023b           	          .short 0x023b
180692:	020b           	          .short 0x020b
180694:	0206 020c      	          andib #12,%d6
180698:	040a           	          .short 0x040a
18069a:	100a           	          .short 0x100a
18069c:	1008           	          .short 0x1008
18069e:	023b           	          .short 0x023b
1806a0:	020b           	          .short 0x020b
1806a2:	0205 020c      	          andib #12,%d5
1806a6:	050a 100a      	          movepw %a2@(4106),%d2
1806aa:	1008           	          .short 0x1008
1806ac:	023b           	          .short 0x023b
1806ae:	020b           	          .short 0x020b
1806b0:	0205 020c      	          andib #12,%d5
1806b4:	050a 100a      	          movepw %a2@(4106),%d2
1806b8:	1008           	          .short 0x1008
1806ba:	023b           	          .short 0x023b
1806bc:	020b           	          .short 0x020b
1806be:	0204 020d      	          andib #13,%d4
1806c2:	050a 100a      	          movepw %a2@(4106),%d2
1806c6:	1008           	          .short 0x1008
1806c8:	023b           	          .short 0x023b
1806ca:	020b           	          .short 0x020b
1806cc:	0204 020c      	          andib #12,%d4
1806d0:	060a           	          .short 0x060a
1806d2:	100a           	          .short 0x100a
1806d4:	1008           	          .short 0x1008
1806d6:	023b           	          .short 0x023b
1806d8:	020b           	          .short 0x020b
1806da:	0203 020c      	          andib #12,%d3
1806de:	070a 100a      	          movepw %a2@(4106),%d3
1806e2:	1008           	          .short 0x1008
1806e4:	023b           	          .short 0x023b
1806e6:	020b           	          .short 0x020b
1806e8:	0203 020c      	          andib #12,%d3
1806ec:	070a 100a      	          movepw %a2@(4106),%d3
1806f0:	1008           	          .short 0x1008
1806f2:	023b           	          .short 0x023b
1806f4:	020b           	          .short 0x020b
1806f6:	0202 020d      	          andib #13,%d2
1806fa:	070a 100a      	          movepw %a2@(4106),%d3
1806fe:	1008           	          .short 0x1008
180700:	023b           	          .short 0x023b
180702:	020b           	          .short 0x020b
180704:	0202 020c      	          andib #12,%d2
180708:	080a           	          .short 0x080a
18070a:	100a           	          .short 0x100a
18070c:	1008           	          .short 0x1008
18070e:	023b           	          .short 0x023b
180710:	020b           	          .short 0x020b
180712:	0202 020c      	          andib #12,%d2
180716:	080a           	          .short 0x080a
180718:	100a           	          .short 0x100a
18071a:	1008           	          .short 0x1008
18071c:	023b           	          .short 0x023b
18071e:	020b           	          .short 0x020b
180720:	0201 020d      	          andib #13,%d1
180724:	080a           	          .short 0x080a
180726:	100a           	          .short 0x100a
180728:	1008           	          .short 0x1008
18072a:	023b           	          .short 0x023b
18072c:	020b           	          .short 0x020b
18072e:	040d           	          .short 0x040d
180730:	090a 100a      	          movepw %a2@(4106),%d4
180734:	1008           	          .short 0x1008
180736:	023b           	          .short 0x023b
180738:	020b           	          .short 0x020b
18073a:	030e 090a      	          movepw %fp@(2314),%d1
18073e:	100a           	          .short 0x100a
180740:	1008           	          .short 0x1008
180742:	0239 0609 030d 0a0a       andib #9,0x30d0a0a
18074a:	100a           	          .short 0x100a
18074c:	1008           	          .short 0x1008
18074e:	0236 0a07 040d 	          andib #7,%fp@(000000000000000d,%d0:w:4)
180754:	0a0a           	          .short 0x0a0a
180756:	100a           	          .short 0x100a
180758:	1008           	          .short 0x1008
18075a:	0234 0505 0207 	          andib #5,%a4@(0000000000000007,%d0:w:2)
180760:	030d 0b0a      	          movepw %a5@(2826),%d1
180764:	100a           	          .short 0x100a
180766:	1008           	          .short 0x1008
180768:	021f 050e      	          andib #14,%sp@+
18076c:	0508 0205      	          movepw %a0@(517),%d2
180770:	030e 0b0a      	          movepw %fp@(2826),%d1
180774:	100a           	          .short 0x100a
180776:	1008           	          .short 0x1008
180778:	021e 0a08      	          andib #8,%fp@+
18077c:	050a 0204      	          movepw %a2@(516),%d2
180780:	030e 0c0a      	          movepw %fp@(3082),%d1
180784:	100a           	          .short 0x100a
180786:	1008           	          .short 0x1008
180788:	021d 0305      	          andib #5,%a5@+
18078c:	0e0c           	          .short 0x0e0c
18078e:	0203 030f      	          andib #15,%d3
180792:	0c0a           	          .short 0x0c0a
180794:	100a           	          .short 0x100a
180796:	1008           	          .short 0x1008
180798:	021c 030a      	          andib #10,%a4@+
18079c:	090c 0302      	          movepw %a4@(770),%d4
1807a0:	030f 0d0a      	          movepw %sp@(3338),%d1
1807a4:	100a           	          .short 0x100a
1807a6:	1008           	          .short 0x1008
1807a8:	021c 0220      	          andib #32,%a4@+
1807ac:	0301           	          btst %d1,%d1
1807ae:	030f 0347      	          movepw %sp@(839),%d1
1807b2:	021b 0220      	          andib #32,%a3@+
1807b6:	070f 0249      	          movepw %sp@(585),%d3
1807ba:	021a 0220      	          andib #32,%a2@+
1807be:	0510           	          btst %d2,%a0@
1807c0:	034a 0219      	          movepl %a2@(537),%d1
1807c4:	031f           	          btst %d1,%sp@+
1807c6:	0511           	          btst %d2,%a1@
1807c8:	024b           	          .short 0x024b
1807ca:	0219 021f      	          andib #31,%a1@+
1807ce:	0413 024b      	          subib #75,%a3@
1807d2:	0218 021f      	          andib #31,%a0@+
1807d6:	0413 024c      	          subib #76,%a3@
1807da:	0218 021e      	          andib #30,%a0@+
1807de:	0315           	          btst %d1,%a5@
1807e0:	024c           	          .short 0x024c
1807e2:	0217 021e      	          andib #30,%sp@
1807e6:	0315           	          btst %d1,%a5@
1807e8:	024d           	          .short 0x024d
1807ea:	0216 031d      	          andib #29,%fp@
1807ee:	0217 024d      	          andib #77,%sp@
1807f2:	0215 031d      	          andib #29,%a5@
1807f6:	0217 024e      	          andib #78,%sp@
1807fa:	0215 021b      	          andib #27,%a5@
1807fe:	0319           	          btst %d1,%a1@+
180800:	024e           	          .short 0x024e
180802:	0214 021b      	          andib #27,%a4@
180806:	0319           	          btst %d1,%a1@+
180808:	024f           	          .short 0x024f
18080a:	0213 021a      	          andib #26,%a3@
18080e:	031b           	          btst %d1,%a3@+
180810:	024f           	          .short 0x024f
180812:	0212 0318      	          andib #24,%a2@
180816:	031c           	          btst %d1,%a4@+
180818:	0250 0211      	          andiw #529,%a0@
18081c:	0318           	          btst %d1,%a0@+
18081e:	031c           	          btst %d1,%a4@+
180820:	0350           	          bchg %d1,%a0@
180822:	0210 0317      	          andib #23,%a0@
180826:	031d           	          btst %d1,%a5@+
180828:	084c           	          .short 0x084c
18082a:	020f           	          .short 0x020f
18082c:	0315           	          btst %d1,%a5@
18082e:	041e 0305      	          subib #5,%fp@+
180832:	024b           	          .short 0x024b
180834:	020f           	          .short 0x020f
180836:	0237 0307 024a 	          andib #7,%sp@(000000000000004a,%d0:w:2)
18083c:	020e           	          .short 0x020e
18083e:	0236 0409 0249 	          andib #9,%fp@(0000000000000049,%d0:w:2)
180844:	020d           	          .short 0x020d
180846:	0335 030b 0249 	          btst %d1,%a5@(0000000000000000,%d0:w:2)@(000000000249020d)
18084c:	020d 
18084e:	0235 030d 0248 	          andib #13,%a5@(0000000000000048,%d0:w:2)
180854:	020c           	          .short 0x020c
180856:	0234 030f 0248 	          andib #15,%a4@(0000000000000048,%d0:w:2)
18085c:	020c           	          .short 0x020c
18085e:	0233 0310 0248 	          andib #16,%a3@(0000000000000048,%d0:w:2)
180864:	020b           	          .short 0x020b
180866:	0233 0311 0248 	          andib #17,%a3@(0000000000000048,%d0:w:2)
18086c:	020a           	          .short 0x020a
18086e:	0332 0312 0248 	          btst %d1,%a2@(0000000000000000,%d0:w:2)@(0000000000000248)
180874:	0209           	          .short 0x0209
180876:	0333 0213      	          btst %d1,%a3@(0000000000000013,%d0:w:2)
18087a:	0248           	          .short 0x0248
18087c:	0208           	          .short 0x0208
18087e:	0333 0214      	          btst %d1,%a3@(0000000000000014,%d0:w:2)
180882:	0248           	          .short 0x0248
180884:	0207 0332      	          andib #50,%d7
180888:	0315           	          btst %d1,%a5@
18088a:	0248           	          .short 0x0248
18088c:	0206 0233      	          andib #51,%d6
180890:	0315           	          btst %d1,%a5@
180892:	0249           	          .short 0x0249
180894:	0205 0232      	          andib #50,%d5
180898:	0416 0249      	          subib #73,%fp@
18089c:	0205 0131      	          andib #49,%d5
1808a0:	0318           	          btst %d1,%a0@+
1808a2:	0349 0239      	          movepl %a1@(569),%d1
1808a6:	0117           	          btst %d0,%sp@
1808a8:	034a 024f      	          movepl %a2@(591),%d1
1808ac:	044b           	          .short 0x044b
1808ae:	024e           	          .short 0x024e
1808b0:	044c           	          .short 0x044c
1808b2:	024b           	          .short 0x024b
1808b4:	084b           	          .short 0x084b
1808b6:	024a           	          .short 0x024a
1808b8:	0504           	          btst %d2,%d4
1808ba:	0348 0249      	          movepl %a0@(585),%d1
1808be:	0309 0346      	          movepw %a1@(838),%d1
1808c2:	0248           	          .short 0x0248
1808c4:	030c 0245      	          movepw %a4@(581),%d1
1808c8:	0247 030d      	          andiw #781,%d7
1808cc:	0245 0246      	          andiw #582,%d5
1808d0:	030f 0244      	          movepw %sp@(580),%d1
1808d4:	0245 0310      	          andiw #784,%d5
1808d8:	0244 0244      	          andiw #580,%d4
1808dc:	0212 0244      	          andib #68,%a2@
1808e0:	0244 0212      	          andiw #530,%d4
1808e4:	0244 0244      	          andiw #580,%d4
1808e8:	0212 0244      	          andib #68,%a2@
1808ec:	0257 0245      	          andiw #581,%sp@
1808f0:	0257 0245      	          andiw #581,%sp@
1808f4:	0256 0246      	          andiw #582,%fp@
1808f8:	0256 0246      	          andiw #582,%fp@
1808fc:	0255 0247      	          andiw #583,%a5@
180900:	0254 0347      	          andiw #839,%a4@
180904:	0253 0249      	          andiw #585,%a3@
180908:	0252 0349      	          andiw #841,%a2@
18090c:	0250 0747      	          andiw #1863,%a0@
180910:	024e           	          .short 0x024e
180912:	0404 0345      	          subib #69,%d4
180916:	024d           	          .short 0x024d
180918:	0407 0244      	          subib #68,%d7
18091c:	024c           	          .short 0x024c
18091e:	0309 0244      	          movepw %a1@(580),%d1
180922:	024b           	          .short 0x024b
180924:	030b 0243      	          movepw %a3@(579),%d1
180928:	024b           	          .short 0x024b
18092a:	020c           	          .short 0x020c
18092c:	0243 024a      	          andiw #586,%d3
180930:	020d           	          .short 0x020d
180932:	0243 024a      	          andiw #586,%d3
180936:	020c           	          .short 0x020c
180938:	4849           	          .short 0x4849
18093a:	030c 4849      	          movepw %a4@(18505),%d1
18093e:	020c           	          .short 0x020c
180940:	0343           	          bchg %d1,%d3
180942:	0349 020c      	          movepl %a1@(524),%d1
180946:	0243 0358      	          andiw #856,%d3
18094a:	0241 0458      	          andiw #1112,%d1
18094e:	0240 0459      	          andiw #1113,%d0
180952:	023f           	          .short 0x023f
180954:	045a 023e      	          subiw #574,%a2@+
180958:	045b 033c      	          subiw #828,%a3@+
18095c:	045d 415e      	          subiw #16734,%a5@+
180960:	405f           	          negxw %sp@+
180962:	039c           	          bclr %d1,%a4@+
180964:	049b 039c 039c 	          subil #60556188,%a3@+
18096a:	039b           	          bclr %d1,%a3@+
18096c:	039c           	          bclr %d1,%a4@+
18096e:	039c           	          bclr %d1,%a4@+
180970:	039b           	          bclr %d1,%a3@+
180972:	049a 049c 039b 	          subil #77333403,%a2@+
180978:	039c           	          bclr %d1,%a4@+
18097a:	039c           	          bclr %d1,%a4@+
18097c:	039c           	          bclr %d1,%a4@+
18097e:	039c           	          bclr %d1,%a4@+
180980:	039b           	          bclr %d1,%a3@+
180982:	039c           	          bclr %d1,%a4@+
180984:	039b           	          bclr %d1,%a3@+
180986:	049b 039c 039c 	          subil #60556188,%a3@+
18098c:	0370 ff00      	          bchg %d1,%a0@(0000000000000000,%sp:l:8)

;icon: trouble "crossed over workstation"
180990:	b000           	          cmpb %d0,%d0
180992:	fa00           	          .short 0xfa00
180994:	070e 9d18      	          movepw %fp@(-25320),%d3
180998:	9027           	          subb %sp@-,%d0
18099a:	872d 8032      	          orb %d3,%a5@(-32718)
18099e:	7939           	          .short 0x7939
1809a0:	743f           	          moveq #63,%d2
1809a2:	6f43           	          bles 0x1809e7
1809a4:	6b47           	          bmis 0x1809ed
1809a6:	654d           	          bcss 0x1809f5
1809a8:	6251           	          bhis 0x1809fb
1809aa:	5d55           	          subqw #6,%a5@
1809ac:	5959           	          subqw #4,%a1@+
1809ae:	565b           	          addqw #3,%a3@+
1809b0:	535f           	          subqw #1,%sp@+
1809b2:	4f63           	          .short 0x4f63
1809b4:	4c66           	          .short 0x4c66
1809b6:	4869 4630      	          pea %a1@(17968)
1809ba:	0e2d           	          .short 0x0e2d
1809bc:	442a 1c27      	          negb %a2@(7207)
1809c0:	4225           	          clrb %a5@-
1809c2:	2723           	          movel %a3@-,%a3@-
1809c4:	3f21           	          movew %a1@-,%sp@-
1809c6:	3121           	          movew %a1@-,%a0@-
1809c8:	3c1f           	          movew %sp@+,%d6
1809ca:	371f           	          movew %sp@+,%a3@-
1809cc:	3a1e           	          movew %fp@+,%d5
1809ce:	3b1e           	          movew %fp@+,%a5@-
1809d0:	381d           	          movew %a5@+,%d4
1809d2:	3f1d           	          movew %a5@+,%sp@-
1809d4:	361c           	          movew %a4@+,%d3
1809d6:	431c           	          chkl %a4@+,%d1
1809d8:	351a           	          movew %a2@+,%a2@-
1809da:	471b           	          chkl %a3@+,%d3
1809dc:	321a           	          movew %a2@+,%d1
1809de:	4b1a           	          chkl %a2@+,%d5
1809e0:	301a           	          movew %a2@+,%d0
1809e2:	4d1a           	          chkl %a2@+,%d6
1809e4:	2f18           	          movel %a0@+,%sp@-
1809e6:	5119           	          subqb #8,%a1@+
1809e8:	2d17           	          movel %sp@,%fp@-
1809ea:	5419           	          addqb #2,%a1@+
1809ec:	2b18           	          movel %a0@+,%a5@-
1809ee:	5618           	          addqb #3,%a0@+
1809f0:	2a18           	          movel %a0@+,%d5
1809f2:	5717           	          subqb #3,%sp@
1809f4:	281b           	          movel %a3@+,%d4
1809f6:	5817           	          addqb #4,%sp@
1809f8:	261c           	          movel %a4@+,%d3
1809fa:	5816           	          addqb #4,%fp@
1809fc:	251e           	          movel %fp@+,%a2@-
1809fe:	5816           	          addqb #4,%fp@
180a00:	2320           	          movel %a0@-,%a1@-
180a02:	5816           	          addqb #4,%fp@
180a04:	216a 0f16 216c 	          movel %a2@(3862),%a0@(8556)
180a0a:	0e16           	          .short 0x0e16
180a0c:	1f6e 0e16 1e6f 	          moveb %fp@(3606),%sp@(7791)
180a12:	0e15           	          .short 0x0e15
180a14:	1d70 0f15 1b2c 	          moveb %a0@(0000000000000000)@(0000000000000000,%d0:l:8),%fp@(6956)
180a1a:	3e08           	          movew %a0,%d7
180a1c:	0f14           	          btst %d7,%a4@
180a1e:	1b2d 3f06      	          moveb %a5@(16134),%a5@-
180a22:	1014           	          moveb %a4@,%d0
180a24:	1a2e 3e06      	          moveb %fp@(15878),%d5
180a28:	1014           	          moveb %a4@,%d0
180a2a:	1913           	          moveb %a3@,%a4@-
180a2c:	011c           	          btst %d0,%a4@+
180a2e:	3e05           	          movew %d5,%d7
180a30:	1114           	          moveb %a4@,%a0@-
180a32:	1714           	          moveb %a4@,%a3@-
180a34:	021c 3d05      	          andib #5,%a4@+
180a38:	1213           	          moveb %a3@,%d1
180a3a:	1614           	          moveb %a4@,%d3
180a3c:	041c 3c05      	          subib #5,%a4@+
180a40:	1214           	          moveb %a4@,%d1
180a42:	1514           	          moveb %a4@,%a2@-
180a44:	051c           	          btst %d2,%a4@+
180a46:	3b05           	          movew %d5,%a5@-
180a48:	1313           	          moveb %a3@,%a1@-
180a4a:	1514           	          moveb %a4@,%a2@-
180a4c:	061c 3a05      	          addib #5,%a4@+
180a50:	1314           	          moveb %a4@,%a1@-
180a52:	1413           	          moveb %a3@,%d2
180a54:	081c 3905      	          btst #5,%a4@+
180a58:	1413           	          moveb %a3@,%d2
180a5a:	1313           	          moveb %a3@,%a1@-
180a5c:	0a1c 3805      	          eorib #5,%a4@+
180a60:	1513           	          moveb %a3@,%a2@-
180a62:	1213           	          moveb %a3@,%d1
180a64:	0b1c           	          btst %d5,%a4@+
180a66:	3705           	          movew %d5,%a3@-
180a68:	1513           	          moveb %a3@,%a2@-
180a6a:	1113           	          moveb %a3@,%a0@-
180a6c:	0d1c           	          btst %d6,%a4@+
180a6e:	3605           	          movew %d5,%d3
180a70:	1613           	          moveb %a3@,%d3
180a72:	1013           	          moveb %a3@,%d0
180a74:	0e1c           	          .short 0x0e1c
180a76:	3505           	          movew %d5,%a2@-
180a78:	1613           	          moveb %a3@,%d3
180a7a:	0f13           	          btst %d7,%a3@
180a7c:	101c           	          moveb %a4@+,%d0
180a7e:	3405           	          movew %d5,%d2
180a80:	1613           	          moveb %a3@,%d3
180a82:	0f13           	          btst %d7,%a3@
180a84:	101d           	          moveb %a5@+,%d0
180a86:	3305           	          movew %d5,%a1@-
180a88:	1712           	          moveb %a2@,%a3@-
180a8a:	0f13           	          btst %d7,%a3@
180a8c:	101e           	          moveb %fp@+,%d0
180a8e:	3205           	          movew %d5,%d1
180a90:	1812           	          moveb %a2@,%d4
180a92:	0d13           	          btst %d6,%a3@
180a94:	111f           	          moveb %sp@+,%a0@-
180a96:	3105           	          movew %d5,%a0@-
180a98:	1812           	          moveb %a2@,%d4
180a9a:	0d13           	          btst %d6,%a3@
180a9c:	1120           	          moveb %a0@-,%a0@-
180a9e:	3005           	          movew %d5,%d0
180aa0:	1911           	          moveb %a1@,%a4@-
180aa2:	0d13           	          btst %d6,%a3@
180aa4:	1121           	          moveb %a1@-,%a0@-
180aa6:	2f05           	          movel %d5,%sp@-
180aa8:	1912           	          moveb %a2@,%a4@-
180aaa:	0c12 1205      	          cmpib #5,%a2@
180aae:	011c           	          btst %d0,%a4@+
180ab0:	2e05           	          movel %d5,%d7
180ab2:	1912           	          moveb %a2@,%a4@-
180ab4:	0c12 1205      	          cmpib #5,%a2@
180ab8:	021c 2d05      	          andib #5,%a4@+
180abc:	1912           	          moveb %a2@,%a4@-
180abe:	0b12           	          btst %d5,%a2@
180ac0:	1305           	          moveb %d5,%a1@-
180ac2:	031c           	          btst %d1,%a4@+
180ac4:	2c05           	          movel %d5,%d6
180ac6:	1a12           	          moveb %a2@,%d5
180ac8:	0a12 1305      	          eorib #5,%a2@
180acc:	041c 2b05      	          subib #5,%a4@+
180ad0:	1a12           	          moveb %a2@,%d5
180ad2:	0a12 1305      	          eorib #5,%a2@
180ad6:	051c           	          btst %d2,%a4@+
180ad8:	2a05           	          movel %d5,%d5
180ada:	1a12           	          moveb %a2@,%d5
180adc:	0912           	          btst %d4,%a2@
180ade:	1405           	          moveb %d5,%d2
180ae0:	061c 2905      	          addib #5,%a4@+
180ae4:	1a12           	          moveb %a2@,%d5
180ae6:	0912           	          btst %d4,%a2@
180ae8:	1405           	          moveb %d5,%d2
180aea:	071c           	          btst %d3,%a4@+
180aec:	2805           	          movel %d5,%d4
180aee:	1b11           	          moveb %a1@,%a5@-
180af0:	0912           	          btst %d4,%a2@
180af2:	1405           	          moveb %d5,%d2
180af4:	081c 2705      	          btst #5,%a4@+
180af8:	1b12           	          moveb %a2@,%a5@-
180afa:	0812 1405      	          btst #5,%a2@
180afe:	091c           	          btst %d4,%a4@+
180b00:	2605           	          movel %d5,%d3
180b02:	1b12           	          moveb %a2@,%a5@-
180b04:	0812 1405      	          btst #5,%a2@
180b08:	0a1c 2505      	          eorib #5,%a4@+
180b0c:	1b12           	          moveb %a2@,%a5@-
180b0e:	0812 1405      	          btst #5,%a2@
180b12:	0b1c           	          btst %d5,%a4@+
180b14:	2405           	          movel %d5,%d2
180b16:	1b12           	          moveb %a2@,%a5@-
180b18:	0812 1405      	          btst #5,%a2@
180b1c:	0c1c 2305      	          cmpib #5,%a4@+
180b20:	1c12           	          moveb %a2@,%d6
180b22:	0712           	          btst %d3,%a2@
180b24:	1405           	          moveb %d5,%d2
180b26:	0d1c           	          btst %d6,%a4@+
180b28:	2205           	          movel %d5,%d1
180b2a:	1c12           	          moveb %a2@,%d6
180b2c:	0612 1505      	          addib #5,%a2@
180b30:	0e1c           	          .short 0x0e1c
180b32:	2105           	          movel %d5,%a0@-
180b34:	1c12           	          moveb %a2@,%d6
180b36:	0612 1505      	          addib #5,%a2@
180b3a:	0f1c           	          btst %d7,%a4@+
180b3c:	2005           	          movel %d5,%d0
180b3e:	1c12           	          moveb %a2@,%d6
180b40:	0612 1505      	          addib #5,%a2@
180b44:	101c           	          moveb %a4@+,%d0
180b46:	1f05           	          moveb %d5,%sp@-
180b48:	1c12           	          moveb %a2@,%d6
180b4a:	0612 1505      	          addib #5,%a2@
180b4e:	111c           	          moveb %a4@+,%a0@-
180b50:	1e05           	          moveb %d5,%d7
180b52:	1c12           	          moveb %a2@,%d6
180b54:	0612 1505      	          addib #5,%a2@
180b58:	121c           	          moveb %a4@+,%d1
180b5a:	1d05           	          moveb %d5,%fp@-
180b5c:	1c12           	          moveb %a2@,%d6
180b5e:	0612 1505      	          addib #5,%a2@
180b62:	131c           	          moveb %a4@+,%a1@-
180b64:	1c05           	          moveb %d5,%d6
180b66:	1c12           	          moveb %a2@,%d6
180b68:	0612 1505      	          addib #5,%a2@
180b6c:	141c           	          moveb %a4@+,%d2
180b6e:	1b05           	          moveb %d5,%a5@-
180b70:	1c12           	          moveb %a2@,%d6
180b72:	0612 1505      	          addib #5,%a2@
180b76:	151c           	          moveb %a4@+,%a2@-
180b78:	1a05           	          moveb %d5,%d5
180b7a:	1c12           	          moveb %a2@,%d6
180b7c:	0612 1505      	          addib #5,%a2@
180b80:	161c           	          moveb %a4@+,%d3
180b82:	1905           	          moveb %d5,%a4@-
180b84:	1c12           	          moveb %a2@,%d6
180b86:	0612 1505      	          addib #5,%a2@
180b8a:	171c           	          moveb %a4@+,%a3@-
180b8c:	1805           	          moveb %d5,%d4
180b8e:	1c12           	          moveb %a2@,%d6
180b90:	0612 1505      	          addib #5,%a2@
180b94:	181c           	          moveb %a4@+,%d4
180b96:	1705           	          moveb %d5,%a3@-
180b98:	1c12           	          moveb %a2@,%d6
180b9a:	0612 1505      	          addib #5,%a2@
180b9e:	191c           	          moveb %a4@+,%a4@-
180ba0:	1605           	          moveb %d5,%d3
180ba2:	1c12           	          moveb %a2@,%d6
180ba4:	0712           	          btst %d3,%a2@
180ba6:	1405           	          moveb %d5,%d2
180ba8:	1a1c           	          moveb %a4@+,%d5
180baa:	1505           	          moveb %d5,%a2@-
180bac:	1c11           	          moveb %a1@,%d6
180bae:	0812 1405      	          btst #5,%a2@
180bb2:	1b1c           	          moveb %a4@+,%a5@-
180bb4:	1405           	          moveb %d5,%d2
180bb6:	1c11           	          moveb %a1@,%d6
180bb8:	0812 1405      	          btst #5,%a2@
180bbc:	1c1c           	          moveb %a4@+,%d6
180bbe:	1305           	          moveb %d5,%a1@-
180bc0:	1b12           	          moveb %a2@,%a5@-
180bc2:	0812 1405      	          btst #5,%a2@
180bc6:	1d1c           	          moveb %a4@+,%fp@-
180bc8:	1205           	          moveb %d5,%d1
180bca:	1b12           	          moveb %a2@,%a5@-
180bcc:	0911           	          btst %d4,%a1@
180bce:	1405           	          moveb %d5,%d2
180bd0:	1e1c           	          moveb %a4@+,%d7
180bd2:	1105           	          moveb %d5,%a0@-
180bd4:	1b12           	          moveb %a2@,%a5@-
180bd6:	0912           	          btst %d4,%a2@
180bd8:	1305           	          moveb %d5,%a1@-
180bda:	1f1c           	          moveb %a4@+,%sp@-
180bdc:	1005           	          moveb %d5,%d0
180bde:	1b12           	          moveb %a2@,%a5@-
180be0:	0912           	          btst %d4,%a2@
180be2:	1306           	          moveb %d6,%a1@-
180be4:	1f1c           	          moveb %a4@+,%sp@-
180be6:	0e06           	          .short 0x0e06
180be8:	1b12           	          moveb %a2@,%a5@-
180bea:	0912           	          btst %d4,%a2@
180bec:	1306           	          moveb %d6,%a1@-
180bee:	201c           	          movel %a4@+,%d0
180bf0:	0d06           	          btst %d6,%d6
180bf2:	1a12           	          moveb %a2@,%d5
180bf4:	0a12 1308      	          eorib #8,%a2@
180bf8:	1f1c           	          moveb %a4@+,%sp@-
180bfa:	0a08           	          .short 0x0a08
180bfc:	1a12           	          moveb %a2@,%d5
180bfe:	0b12           	          btst %d5,%a2@
180c00:	1255           	          .short 0x1255
180c02:	1a12           	          moveb %a2@,%d5
180c04:	0b12           	          btst %d5,%a2@
180c06:	1353 1b12      	          moveb %a3@,%a1@(6930)
180c0a:	0b12           	          btst %d5,%a2@
180c0c:	1353 1a12      	          moveb %a3@,%a1@(6674)
180c10:	0c13 1351      	          cmpib #81,%a3@
180c14:	1b12           	          moveb %a2@,%a5@-
180c16:	0d12           	          btst %d6,%a2@
180c18:	154d           	          .short 0x154d
180c1a:	1d12           	          moveb %a2@,%fp@-
180c1c:	0d13           	          btst %d6,%a3@
180c1e:	3d1c           	          movew %a4@+,%fp@-
180c20:	2413           	          movel %a3@,%d2
180c22:	0e12           	          .short 0x0e12
180c24:	3e1c           	          movew %a4@+,%d7
180c26:	2312           	          movel %a2@,%a1@-
180c28:	0f12           	          btst %d7,%a2@
180c2a:	046a 0e13 0f13 	          subiw #3603,%a2@(3859)
180c30:	036a 0e13      	          bchg %d1,%a2@(3603)
180c34:	0f13           	          btst %d7,%a3@
180c36:	0305           	          btst %d1,%d5
180c38:	1506           	          moveb %d6,%a2@-
180c3a:	1506           	          moveb %d6,%a2@-
180c3c:	021c 0e03      	          andib #3,%a4@+
180c40:	0d13           	          btst %d6,%a3@
180c42:	1113           	          moveb %a3@,%a0@-
180c44:	0205 1506      	          andib #6,%d5
180c48:	1506           	          moveb %d6,%a2@-
180c4a:	031c           	          btst %d1,%a4@+
180c4c:	0d03           	          btst %d6,%d3
180c4e:	0d13           	          btst %d6,%a3@
180c50:	1114           	          moveb %a4@,%a0@-
180c52:	016a 0d12      	          bchg %d0,%a2@(3346)
180c56:	1214           	          moveb %a4@,%d1
180c58:	016a 0c13      	          bchg %d0,%a2@(3091)
180c5c:	1313           	          moveb %a3@,%a1@-
180c5e:	0107           	          btst %d0,%d7
180c60:	3a1c           	          movew %a4@+,%d5
180c62:	0a03 0c13      	          eorib #19,%d3
180c66:	1313           	          moveb %a3@,%a1@-
180c68:	0107           	          btst %d0,%d7
180c6a:	3b1c           	          movew %a4@+,%a5@-
180c6c:	0903           	          btst %d4,%d3
180c6e:	0b13           	          btst %d5,%a3@
180c70:	1512           	          moveb %a2@,%a2@-
180c72:	0107           	          btst %d0,%d7
180c74:	3c1c           	          movew %a4@+,%d6
180c76:	0803 0a14      	          btst #20,%d3
180c7a:	1611           	          moveb %a1@,%d3
180c7c:	0105           	          btst %d0,%d5
180c7e:	3f1c           	          movew %a4@+,%sp@-
180c80:	0703           	          btst %d3,%d3
180c82:	0a13 1711      	          eorib #17,%a3@
180c86:	0105           	          btst %d0,%d5
180c88:	401c           	          negxb %a4@+
180c8a:	0603 0914      	          addib #20,%d3
180c8e:	1810           	          moveb %a0@,%d4
180c90:	0105           	          btst %d0,%d5
180c92:	401d           	          negxb %a5@+
180c94:	0503           	          btst %d2,%d3
180c96:	0815 1810      	          btst #16,%a5@
180c9a:	0105           	          btst %d0,%d5
180c9c:	3f1f           	          movew %sp@+,%sp@-
180c9e:	0403 0814      	          subib #20,%d3
180ca2:	1a0f           	          .short 0x1a0f
180ca4:	010b 3227      	          movepw %a3@(12839),%d0
180ca8:	0303           	          btst %d1,%d3
180caa:	0715           	          btst %d3,%a5@
180cac:	1a0f           	          .short 0x1a0f
180cae:	010b 3228      	          movepw %a3@(12840),%d0
180cb2:	0203 0615      	          andib #21,%d3
180cb6:	1c0e           	          .short 0x1c0e
180cb8:	016a 0614      	          bchg %d0,%a2@(1556)
180cbc:	1e0d           	          .short 0x1e0d
180cbe:	4b1d           	          chkl %a5@+,%d5
180cc0:	0815 1e0d      	          btst #13,%a5@
180cc4:	4c1d           	          .short 0x4c1d
180cc6:	0615 2015      	          addib #21,%a5@
180cca:	441d           	          negb %a5@+
180ccc:	0415 2115      	          subib #21,%a5@
180cd0:	451d           	          chkl %a5@+,%d2
180cd2:	0216 2215      	          andib #21,%fp@
180cd6:	4533 2415      	          chkl %a3@(0000000000000015,%d2:w:4),%d2
180cda:	4531 2616      	          chkl %a1@(0000000000000016,%d2:w:8),%d2
180cde:	4430 2617      	          negb %a0@(0000000000000017,%d2:w:8)
180ce2:	442e 2817      	          negb %fp@(10263)
180ce6:	442c 2a18      	          negb %a4@(10776)
180cea:	432b 2b18      	          chkl %a3@(11032),%d1
180cee:	4329 2d19      	          chkl %a1@(11545),%d1
180cf2:	4227           	          clrb %sp@-
180cf4:	2f1a           	          movel %a2@+,%sp@-
180cf6:	4125           	          chkl %a5@-,%d0
180cf8:	311a           	          movew %a2@+,%a0@-
180cfa:	4123           	          chkl %a3@-,%d0
180cfc:	331a           	          movew %a2@+,%a1@-
180cfe:	4121           	          chkl %a1@-,%d0
180d00:	341c           	          movew %a4@+,%d2
180d02:	401f           	          negxb %sp@+
180d04:	361d           	          movew %a5@+,%d3
180d06:	3f1e           	          movew %fp@+,%sp@-
180d08:	381e           	          movew %fp@+,%d4
180d0a:	391f           	          movew %sp@+,%a4@-
180d0c:	3b1f           	          movew %sp@+,%a5@-
180d0e:	3520           	          movew %a0@-,%a2@-
180d10:	3d20           	          movew %a0@-,%fp@-
180d12:	3121           	          movew %a1@-,%a0@-
180d14:	3f22           	          movew %a2@-,%sp@-
180d16:	2b23           	          movel %a3@-,%a5@-
180d18:	4124           	          chkl %a4@-,%d0
180d1a:	2524           	          movel %a4@-,%a2@-
180d1c:	4525           	          chkl %a5@-,%d2
180d1e:	1f27           	          moveb %sp@-,%sp@-
180d20:	472c 0d2d      	          chkl %a4@(3373),%d3
180d24:	4b64           	          .short 0x4b64
180d26:	4d61           	          .short 0x4d61
180d28:	515d           	          subqw #8,%a5@+
180d2a:	545b           	          addqw #2,%a3@+
180d2c:	5758           	          subqw #3,%a0@+
180d2e:	5b52           	          subqw #5,%a2@
180d30:	604e           	          bras 0x180d80
180d32:	644a           	          bccs 0x180d7e
180d34:	6846           	          bvcs 0x180d7c
180d36:	6c42           	          bges 0x180d7a
180d38:	703d           	          moveq #61,%d0
180d3a:	7833           	          moveq #51,%d4
180d3c:	812c 8725      	          orb %d0,%a4@(-30939)
180d40:	911b           	          subb %d0,%a3@+
180d42:	9b0e           	          subxb %fp@-,%a5@-
180d44:	fa00           	          .short 0xfa00
180d46:	07b0 ff00      	          bclr %d3,%a0@(0000000000000000,%sp:l:8)

;icon: unable to connect
180d4a:	a075           	          .short 0xa075
180d4c:	2b75 2b75 2b75 	          movel %a5@(000000002b752b75)@(0000000000000000),%a5@(3855)
180d52:	2b75 0f0f 
180d56:	0d75 0d04      	          bchg %d6,%a5@(0000000000000000)@(0000000000000000,%d0:l:4)
180d5a:	0b04           	          btst %d5,%d4
180d5c:	0b75 0c02      	          bchg %d5,%a5@(0000000000000002,%d0:l:4)
180d60:	1003           	          moveb %d3,%d0
180d62:	0a75 0b02 1203 	          eoriw #2818,%a5@(0000000000000003,%d1:w:2)
180d68:	0975 0b02 1302 	          bchg %d4,%a5@(0000000000000000,%d0:l:2)@(0000000000001302)
180d6e:	0975 0a03      	          bchg %d4,%a5@(0000000000000003,%d0:l:2)
180d72:	1303           	          moveb %d3,%a1@-
180d74:	0875 0a04 1203 	          bchg #4,%a5@(0000000000000003,%d1:w:2)
180d7a:	0875 0a04 1203 	          bchg #4,%a5@(0000000000000003,%d1:w:2)
180d80:	0875 0b02 1303 	          bchg #2,%a5@(0000000000000000,%d1:w:2)@(0000000008752003)
180d86:	0875 2003 
180d8a:	0875 2002 0975 	          bchg #2,%a5@(000000001f020a75)@(0000000000000000)
180d90:	1f02 0a75 
180d94:	1e02           	          moveb %d2,%d7
180d96:	0b75 1c03      	          bchg %d5,%a5@(0000000000000003,%d1:l:4)
180d9a:	0c75 1805 0e75 	          cmpiw #6149,%a5@(0000000000000075,%d0:l:8)
180da0:	1604           	          moveb %d4,%d3
180da2:	1175 1502 1475 	          moveb %a5@(0000000000000000,%d1:w:4)@(0000000000001475),%a0@(5378)
180da8:	1502 
180daa:	1475           	          .short 0x1475
180dac:	1402           	          moveb %d2,%d2
180dae:	1575 1402 1575 	          moveb %a5@(0000000000000002,%d1:w:4),%a2@(5493)
180db4:	1402           	          moveb %d2,%d2
180db6:	154d           	          .short 0x154d
180db8:	3c02           	          movew %d2,%d6
180dba:	154c           	          .short 0x154c
180dbc:	3d02           	          movew %d2,%fp@-
180dbe:	154c           	          .short 0x154c
180dc0:	3d02           	          movew %d2,%fp@-
180dc2:	154d           	          .short 0x154d
180dc4:	3c02           	          movew %d2,%d6
180dc6:	154d           	          .short 0x154d
180dc8:	534e           	          subqw #1,%fp
180dca:	0720           	          btst %d3,%a0@-
180dcc:	2b4f 071f      	          movel %sp,%a5@(1823)
180dd0:	2b50 071e      	          movel %a0@,%a5@(1822)
180dd4:	2b51 071d      	          movel %a1@,%a5@(1821)
180dd8:	1402           	          moveb %d2,%d2
180dda:	1552 071c      	          moveb %a2@,%a2@(1820)
180dde:	1304           	          moveb %d4,%a1@-
180de0:	1453           	          .short 0x1453
180de2:	071b           	          btst %d3,%a3@+
180de4:	1402           	          moveb %d2,%d2
180de6:	1554 071a      	          moveb %a4@,%a2@(1818)
180dea:	2b55 0719      	          movel %a5@,%a5@(1817)
180dee:	2b56 0718      	          movel %fp@,%a5@(1816)
180df2:	2b57 0717      	          movel %sp@,%a5@(1815)
180df6:	2b58 0716      	          movel %a0@+,%a5@(1814)
180dfa:	2b59 0715      	          movel %a1@+,%a5@(1813)
180dfe:	2b5a 0714      	          movel %a2@+,%a5@(1812)
180e02:	2b5b 0713      	          movel %a3@+,%a5@(1811)
180e06:	2b5c 0712      	          movel %a4@+,%a5@(1810)
180e0a:	2b5d 079a      	          movel %a5@+,%a5@(1946)
180e0e:	079a           	          bclr %d3,%a2@+
180e10:	079a           	          bclr %d3,%a2@+
180e12:	079a           	          bclr %d3,%a2@+
180e14:	079a           	          bclr %d3,%a2@+
180e16:	079a           	          bclr %d3,%a2@+
180e18:	079a           	          bclr %d3,%a2@+
180e1a:	079a           	          bclr %d3,%a2@+
180e1c:	079a           	          bclr %d3,%a2@+
180e1e:	079a           	          bclr %d3,%a2@+
180e20:	079a           	          bclr %d3,%a2@+
180e22:	079a           	          bclr %d3,%a2@+
180e24:	079a           	          bclr %d3,%a2@+
180e26:	079a           	          bclr %d3,%a2@+
180e28:	079a           	          bclr %d3,%a2@+
180e2a:	079a           	          bclr %d3,%a2@+
180e2c:	079a           	          bclr %d3,%a2@+
180e2e:	079a           	          bclr %d3,%a2@+
180e30:	079a           	          bclr %d3,%a2@+
180e32:	079a           	          bclr %d3,%a2@+
180e34:	079a           	          bclr %d3,%a2@+
180e36:	079a           	          bclr %d3,%a2@+
180e38:	079a           	          bclr %d3,%a2@+
180e3a:	079a           	          bclr %d3,%a2@+
180e3c:	079a           	          bclr %d3,%a2@+
180e3e:	079a           	          bclr %d3,%a2@+
180e40:	079a           	          bclr %d3,%a2@+
180e42:	079a           	          bclr %d3,%a2@+
180e44:	079a           	          bclr %d3,%a2@+
180e46:	079a           	          bclr %d3,%a2@+
180e48:	079a           	          bclr %d3,%a2@+
180e4a:	079a           	          bclr %d3,%a2@+
180e4c:	079a           	          bclr %d3,%a2@+
180e4e:	079a           	          bclr %d3,%a2@+
180e50:	079a           	          bclr %d3,%a2@+
180e52:	079a           	          bclr %d3,%a2@+
180e54:	079a           	          bclr %d3,%a2@+
180e56:	079a           	          bclr %d3,%a2@+
180e58:	079a           	          bclr %d3,%a2@+
180e5a:	079a           	          bclr %d3,%a2@+
180e5c:	079a           	          bclr %d3,%a2@+
180e5e:	079a           	          bclr %d3,%a2@+
180e60:	079a           	          bclr %d3,%a2@+
180e62:	079a           	          bclr %d3,%a2@+
180e64:	0723           	          btst %d3,%a3@-
180e66:	3245           	          moveaw %d5,%a1
180e68:	0721           	          btst %d3,%a1@-
180e6a:	3544 071e      	          movew %d4,%a2@(1822)
180e6e:	3844           	          moveaw %d4,%a4
180e70:	071c           	          btst %d3,%a4@+
180e72:	3945 071b      	          movew %d5,%a4@(1819)
180e76:	0333 0445      	          btst %d1,%a3@(0000000000000045,%d0:w:4)
180e7a:	071a           	          btst %d3,%a2@+
180e7c:	0235 0346 0718 	          andib #70,%a5@(0000000000000000,%d0:w:8)
180e82:	0335 0347 0717 0335       btst %d1,%a5@(0000000000000000)@(0000000007170335)
180e8a:	0447 0716      	          subiw #1814,%d7
180e8e:	0335 0448      	          btst %d1,%a5@(0000000000000048,%d0:w:4)
180e92:	0715           	          btst %d3,%a5@
180e94:	0335 0449      	          btst %d1,%a5@(0000000000000049,%d0:w:4)
180e98:	0714           	          btst %d3,%a4@
180e9a:	0335 044a      	          btst %d1,%a5@(000000000000004a,%d0:w:4)
180e9e:	0614 0335      	          addib #53,%a4@
180ea2:	5414           	          addqb #2,%a4@
180ea4:	0335 5414      	          btst %d1,%a5@(0000000000000014,%d5:w:4)
180ea8:	0335 5315      	          btst %d1,%a5@(0000000000000000)@(0000000000000000,%d5:w:2)
180eac:	0335 5216      	          btst %d1,%a5@(0000000000000016,%d5:w:2)
180eb0:	0335 5018      	          btst %d1,%a5@(0000000000000018,%d5:w)
180eb4:	0335 0464      	          btst %d1,%a5@(0000000000000064,%d0:w:4)
180eb8:	0335 0464      	          btst %d1,%a5@(0000000000000064,%d0:w:4)
180ebc:	0335 0464      	          btst %d1,%a5@(0000000000000064,%d0:w:4)
180ec0:	0335 0464      	          btst %d1,%a5@(0000000000000064,%d0:w:4)
180ec4:	0335 0464      	          btst %d1,%a5@(0000000000000064,%d0:w:4)
180ec8:	0335 0464      	          btst %d1,%a5@(0000000000000064,%d0:w:4)
180ecc:	0335 0464      	          btst %d1,%a5@(0000000000000064,%d0:w:4)
180ed0:	0335 0464      	          btst %d1,%a5@(0000000000000064,%d0:w:4)
180ed4:	0335 0464      	          btst %d1,%a5@(0000000000000064,%d0:w:4)
180ed8:	0335 0464      	          btst %d1,%a5@(0000000000000064,%d0:w:4)
180edc:	0335 0464      	          btst %d1,%a5@(0000000000000064,%d0:w:4)
180ee0:	0335 0464      	          btst %d1,%a5@(0000000000000064,%d0:w:4)
180ee4:	0335 0464      	          btst %d1,%a5@(0000000000000064,%d0:w:4)
180ee8:	0335 0464      	          btst %d1,%a5@(0000000000000064,%d0:w:4)
180eec:	0335 0464      	          btst %d1,%a5@(0000000000000064,%d0:w:4)
180ef0:	0335 0464      	          btst %d1,%a5@(0000000000000064,%d0:w:4)
180ef4:	0335 0464      	          btst %d1,%a5@(0000000000000064,%d0:w:4)
180ef8:	0335 0464      	          btst %d1,%a5@(0000000000000064,%d0:w:4)
180efc:	0335 0464      	          btst %d1,%a5@(0000000000000064,%d0:w:4)
180f00:	0335 0464      	          btst %d1,%a5@(0000000000000064,%d0:w:4)
180f04:	0335 0464      	          btst %d1,%a5@(0000000000000064,%d0:w:4)
180f08:	0335 0464      	          btst %d1,%a5@(0000000000000064,%d0:w:4)
180f0c:	0335 0464      	          btst %d1,%a5@(0000000000000064,%d0:w:4)
180f10:	0335 0464      	          btst %d1,%a5@(0000000000000064,%d0:w:4)
180f14:	0335 0464      	          btst %d1,%a5@(0000000000000064,%d0:w:4)
180f18:	0335 0464      	          btst %d1,%a5@(0000000000000064,%d0:w:4)
180f1c:	0335 0464      	          btst %d1,%a5@(0000000000000064,%d0:w:4)
180f20:	0335 0464      	          btst %d1,%a5@(0000000000000064,%d0:w:4)
180f24:	0335 0365 0434 	          btst %d1,%a5@(0000000000000434)@(0000000000000000)
180f2a:	0366           	          bchg %d1,%fp@-
180f2c:	0432 0466 3968 386a       subib #102,%a2@(000000000000386a)
180f34:	33fa 00a8 4a56 040f       movew %pc@(0x180fde),0x4a56040f
180f3c:	020e           	          .short 0x020e
180f3e:	040a           	          .short 0x040a
180f40:	0306           	          btst %d1,%d6
180f42:	0509 0355      	          movepw %a1@(853),%d2
180f46:	4b55           	          .short 0x4b55
180f48:	4b54           	          .short 0x4b54
180f4a:	062c 0306 0509 	          addib #6,%a4@(1289)
180f50:	0453 062c      	          subiw #1580,%a3@
180f54:	0306           	          btst %d1,%d6
180f56:	0509 0453      	          movepw %a1@(1107),%d2
180f5a:	062c 0306 0509 	          addib #6,%a4@(1289)
180f60:	0453 052d      	          subiw #1325,%a3@
180f64:	0502           	          btst %d2,%d2
180f66:	0709 0453      	          movepw %a1@(1107),%d3
180f6a:	052d 0502      	          btst %d2,%a5@(1282)
180f6e:	0709 0452      	          movepw %a1@(1106),%d3
180f72:	062c 0406 0509 	          addib #6,%a4@(1289)
180f78:	0452 0929      	          subiw #2345,%a2@
180f7c:	0406 0509      	          subib #9,%d6
180f80:	0551           	          bchg %d2,%a1@
180f82:	4f51           	          .short 0x4f51
180f84:	4fff           	          .short 0x4fff

;draw icon
180f86:	48e7 7e60      	          moveml %d1-%d6/%a1-%a2,%sp@-
180f8a:	6100 21b4      	          bsrw 0x183140   ;gray background
180f8e:	1a18           	          moveb %a0@+,%d5  ;icon size
180f90:	1c05           	          moveb %d5,%d6
180f92:	227c 0010 e5c4 	          moveal #0x10e5c4,%a1 ;screen centre
180f98:	0246 00ff      	          andiw #255,%d6
180f9c:	e84e           	          lsrw #4,%d6
180f9e:	92c6           	          subaw %d6,%a1
180fa0:	cdfc 0440      	          mulsw #1088,%d6
180fa4:	93c6           	          subal %d6,%a1 ;a1 icon upper left
180fa6:	50c4           	          st %d4
180fa8:	1618           	          moveb %a0@+,%d3
180faa:	1c05           	          moveb %d5,%d6
180fac:	e80e           	          lsrb #4,%d6
180fae:	0246 00ff      	          andiw #255,%d6
180fb2:	2449           	          moveal %a1,%a2
180fb4:	4281           	          clrl %d1
180fb6:	4282           	          clrl %d2
180fb8:	0243 00ff      	          andiw #255,%d3
180fbc:	4a43           	          tstw %d3
180fbe:	6722           	          beqs 0x180fe2
180fc0:	4a04           	          tstb %d4
180fc2:	6702           	          beqs 0x180fc6
180fc4:	05c1           	          bset %d2,%d1
180fc6:	5282           	          addql #1,%d2
180fc8:	5343           	          subqw #1,%d3
180fca:	0c82 0000 0010 	          cmpil #16,%d2
180fd0:	6de6           	          blts 0x180fb8
180fd2:	c359           	          andw %d1,%a1@+
180fd4:	5346           	          subqw #1,%d6
180fd6:	66dc           	          bnes 0x180fb4
180fd8:	224a           	          moveal %a2,%a1
180fda:	d3fc 0000 0088 	          addal #136,%a1 ;next line
180fe0:	60c8           	          bras 0x180faa
180fe2:	0a04 00ff      	          eorib #-1,%d4
180fe6:	1618           	          moveb %a0@+,%d3
180fe8:	0c03 00ff      	          cmpib #0xFF,%d3
180fec:	66ca           	          bnes 0x180fb8
180fee:	4cdf 067e      	          moveml %sp@+,%d1-%d6/%a1-%a2
180ff2:	4e75           	          rts

start:
180ff4:	46fc 2700      	          movew #0x2700,%sr
180ff8:	2e7c 0001 ffc0 	          moveal #0x1ffc0,%sp
180ffe:	13fc 000e 0080 0081       moveb #0x0E,0x800081 ;LED ...RG
restart:
181006:	103c 0055      	          moveb #85,%d0
18100a:	0c00 0055      	          cmpib #85,%d0
18100e:	6600 00c2      	          bnew 0x1810d2; cpu_error
181012:	203c aaaa aaaa 	          movel #0xAAAAAAAA,%d0
181018:	0c80 aaaa aaaa 	          cmpil #0xAAAAAAAA,%d0
18101e:	6600 00b2      	          bnew 0x1810d2; cpu_error
181022:	203c 5555 5555 	          movel #1431655765,%d0
181028:	2200           	          movel %d0,%d1
18102a:	2401           	          movel %d1,%d2
18102c:	2602           	          movel %d2,%d3
18102e:	2803           	          movel %d3,%d4
181030:	2a04           	          movel %d4,%d5
181032:	2c05           	          movel %d5,%d6
181034:	2e06           	          movel %d6,%d7
181036:	2047           	          moveal %d7,%a0
181038:	2248           	          moveal %a0,%a1
18103a:	2449           	          moveal %a1,%a2
18103c:	264a           	          moveal %a2,%a3
18103e:	284b           	          moveal %a3,%a4
181040:	2a4c           	          moveal %a4,%a5
181042:	2c4d           	          moveal %a5,%fp
181044:	2e4e           	          moveal %fp,%sp
181046:	bffc 5555 5555 	          cmpal #0x55555555,%sp
18104c:	6600 0084      	          bnew 0x1810d2; cpu_error
181050:	203c aaaa aaaa 	          movel #0xAAAAAAAA,%d0
181056:	2200           	          movel %d0,%d1
181058:	2401           	          movel %d1,%d2
18105a:	2602           	          movel %d2,%d3
18105c:	2803           	          movel %d3,%d4
18105e:	2a04           	          movel %d4,%d5
181060:	2c05           	          movel %d5,%d6
181062:	2e06           	          movel %d6,%d7
181064:	2047           	          moveal %d7,%a0
181066:	2248           	          moveal %a0,%a1
181068:	2449           	          moveal %a1,%a2
18106a:	264a           	          moveal %a2,%a3
18106c:	284b           	          moveal %a3,%a4
18106e:	2a4c           	          moveal %a4,%a5
181070:	2c4d           	          moveal %a5,%fp
181072:	2e4e           	          moveal %fp,%sp
181074:	bffc aaaa aaaa 	          cmpal #0xAAAAAAAA,%sp
18107a:	6656           	          bnes 0x1810d2; cpu_error
18107c:	223c 5555 5555 	          movel #0x55555555,%d1
181082:	2401           	          movel %d1,%d2
181084:	8485           	          orl %d5,%d2
181086:	0c82 ffff ffff 	          cmpil #0xFFFFFFFF,%d2
18108c:	6644           	          bnes 0x1810d2; cpu_error
18108e:	2601           	          movel %d1,%d3
181090:	c685           	          andl %d5,%d3
181092:	663e           	          bnes 0x1810d2; cpu_error
181094:	2801           	          movel %d1,%d4
181096:	b384           	          eorl %d1,%d4
181098:	6638           	          bnes 0x1810d2; cpu_error
18109a:	7c28           	          moveq #0x28,%d6
18109c:	8dfc 03e8      	          divsw #1000,%d6
1810a0:	0c86 0028 0000 	          cmpil #0x280000,%d6
1810a6:	662a           	          bnes 0x1810d2; cpu_error
1810a8:	2e05           	          movel %d5,%d7
1810aa:	cfc1           	          mulsw %d1,%d7
1810ac:	0c87 e38e 1c72 	          cmpil #0xe38e1c72,%d7
1810b2:	661e           	          bnes 0x1810d2; cpu_error
1810b4:	2401           	          movel %d1,%d2
1810b6:	e38a           	          lsll #1,%d2
1810b8:	ba82           	          cmpl %d2,%d5
1810ba:	6616           	          bnes 0x1810d2; cpu_error
1810bc:	ee9a           	          rorl #7,%d2
1810be:	b282           	          cmpl %d2,%d1
1810c0:	6610           	          bnes 0x1810d2; cpu_error
1810c2:	0885 0001      	          bclr #1,%d5
1810c6:	670a           	          beqs 0x1810d2; cpu_error
1810c8:	7601           	          moveq #1,%d3
1810ca:	07c5           	          bset %d3,%d5
1810cc:	6604           	          bnes 0x1810d2; cpu_error
1810ce:	4240           	          clrw %d0
1810d0:	601c           	          bras 0x1810ee

cpu_error:
1810d2:	13fc 001e 0080 0081       moveb #0x1E,0x800081 ;LED ...R-
1810da:	0839 0000 0080 00c1       btst #0,0x8000c1
1810e2:	6700 ff22      	          beqw 0x181006 ;restart
1810e6:	303c 8081      	          movew #-32639,%d0
1810ea:	08c0 0013      	          bset #19,%d0
1810ee:	0280 0000 ffff 	          andil #0xFFFF,%d0
1810f4:	0839 0000 0080 00c1       btst #0,0x8000c1 ;manufacturing mode?
1810fc:	6604           	          bnes 0x181102
1810fe:	08c0 0010      	          bset #16,%d0
181102:	0839 0001 0080 00c1       btst #1,0x8000c1 ;BBA present?
18110a:	6604           	          bnes 0x181110
18110c:	08c0 0011      	          bset #17,%d0
181110:	4a40           	          tstw %d0
181112:	6642           	          bnes 0x181156
181114:	13fc 000d 0080 0081       moveb #0x0D,0x800081 ;LED ..R.G
rom_checksum:
18111c:	207c 0018 0000 	          moveal #0x180000,%a0
181122:	4201           	          clrb %d1
181124:	4202           	          clrb %d2
181126:	263c 000c 1a6d 	          movel #0x1834da/2-1,%d3; rom_checksum
18112c:	1818           	          moveb %a0@+,%d4
18112e:	b901           	          eorb %d4,%d1
181130:	1818           	          moveb %a0@+,%d4
181132:	b902           	          eorb %d4,%d2
181134:	51cb fff6      	          dbf %d3,0x18112c
181138:	b218           	          cmpb %a0@+,%d1
18113a:	6604           	          bnes 0x181140
18113c:	b410           	          cmpb %a0@,%d2
18113e:	6716           	          beqs 0x181156
checksum_error:
181140:	13fc 001d 0080 0081       moveb #0x1D,0x800081 ;LED ..R.-
181148:	0800 0010      	          btst #16,%d0
18114c:	66ce           	          bnes 0x18111c
18114e:	303c 8082      	          movew #-32638,%d0
181152:	08c0 0013      	          bset #19,%d0
checksum_ok:
181156:	4e71           	          nop
181158:	4a40           	          tstw %d0
18115a:	6600 0084      	          bnew 0x1811e0
18115e:	13fc 000c 0080 0081       moveb #0x0C,0x800081 ;LED ..RRG
181166:	227c 0000 0000 	          moveal #0,%a1
18116c:	283c 0001 0000 	          movel #0x10000,%d4
181172:	2049           	          moveal %a1,%a0
181174:	2404           	          movel %d4,%d2
181176:	323c aaaa      	          movew #0xFFFFAAAA,%d1
18117a:	30c1           	          movew %d1,%a0@+
18117c:	5382           	          subql #1,%d2
18117e:	66fa           	          bnes 0x18117a
181180:	343c 5555      	          movew #0x5555,%d2
181184:	2049           	          moveal %a1,%a0
181186:	2604           	          movel %d4,%d3
181188:	b250           	          cmpw %a0@,%d1
18118a:	663e           	          bnes 0x1811ca ;ram_error
18118c:	30c2           	          movew %d2,%a0@+
18118e:	5383           	          subql #1,%d3
181190:	66f6           	          bnes 0x181188
181192:	323c 3333      	          movew #0x3333,%d1
181196:	2049           	          moveal %a1,%a0
181198:	2604           	          movel %d4,%d3
18119a:	b450           	          cmpw %a0@,%d2
18119c:	662c           	          bnes 0x1811ca
18119e:	30c1           	          movew %d1,%a0@+
1811a0:	5383           	          subql #1,%d3
1811a2:	66f6           	          bnes 0x18119a
1811a4:	343c 0f0f      	          movew #0x0F0F,%d2
1811a8:	2049           	          moveal %a1,%a0
1811aa:	2604           	          movel %d4,%d3
1811ac:	b250           	          cmpw %a0@,%d1
1811ae:	661a           	          bnes 0x1811ca
1811b0:	30c2           	          movew %d2,%a0@+
1811b2:	5383           	          subql #1,%d3
1811b4:	66f6           	          bnes 0x1811ac
1811b6:	323c 00ff      	          movew #255,%d1
1811ba:	2049           	          moveal %a1,%a0
1811bc:	2604           	          movel %d4,%d3
1811be:	b450           	          cmpw %a0@,%d2
1811c0:	6608           	          bnes 0x1811ca
1811c2:	30c1           	          movew %d1,%a0@+
1811c4:	5383           	          subql #1,%d3
1811c6:	66f6           	          bnes 0x1811be
1811c8:	6016           	          bras 0x1811e0 ;ram_ok

ram_error:
1811ca:	13fc 001c 0080 0081       moveb #0x1C,0x800081 ;LED ..RR-
1811d2:	0800 0010      	          btst #16,%d0
1811d6:	669a           	          bnes 0x181172
1811d8:	303c 8083      	          movew #-32637,%d0
1811dc:	08c0 0013      	          bset #19,%d0
ram_ok:
1811e0:	2e7c 0001 ffc0 	          moveal #0x1ffc0,%sp
1811e6:	207c 0000 0000 	          moveal #0,%a0
1811ec:	227c 0018 0000 	          moveal #0x180000,%a1
1811f2:	323c 001f      	          movew #31,%d1
1811f6:	20d9           	          movel %a1@+,%a0@+
1811f8:	51c9 fffc      	          dbf %d1,0x1811f6
1811fc:	4a40           	          tstw %d0
1811fe:	6604           	          bnes 0x181204
181200:	6100 03ae      	          bsrw 0x1815b0 ;test_crtc
181204:	207c 0080 00a1 	          moveal #0x8000A1,%a0 ;CRT controller
18120a:	227c 0018 0520 	          moveal #0x180520,%a1
181210:	4201           	          clrb %d1
181212:	343c 000f      	          movew #15,%d2
181216:	1081           	          moveb %d1,%a0@
181218:	1159 0002      	          moveb %a1@+,%a0@(2)
18121c:	5201           	          addqb #1,%d1
18121e:	51ca fff6      	          dbf %d2,0x181216
181222:	4279 0001 ffd4 	          clrw 0x1ffd4 ;clear timeout counter
181228:	4239 0001 fff8 	          clrb 0x1fff8 ;clear mouse buttons
18122e:	4a40           	          tstw %d0
181230:	6604           	          bnes 0x181236
181232:	6100 03d4      	          bsrw 0x181608 ;test_vsync
181236:	4e71           	          nop
181238:	207c 0080 0001 	          moveal #0x800001,%a0 ;Keyboard
18123e:	117c 004e 0004 	          moveb #78,%a0@(4)
181244:	117c 007c 0004 	          moveb #124,%a0@(4)
18124a:	4a40           	          tstw %d0
18124c:	660e           	          bnes 0x18125c
18124e:	6100 03f0      	          bsrw 0x181640
181252:	0800 0010      	          btst #16,%d0
181256:	6704           	          beqs 0x18125c
181258:	6100 041e      	          bsrw 0x181678
18125c:	123c 0000      	          moveb #0,%d1
181260:	08c1 0002      	          bset #2,%d1
181264:	1141 0006      	          moveb %d1,%a0@(6)
181268:	4239 0001 fffb 	          clrb 0x1fffb
18126e:	4239 0001 fff9 	          clrb 0x1fff9
181274:	4239 0001 fff6 	          clrb 0x1fff6
18127a:	23fc 0001 ffd6 0001 ffc0  movel #131030,0x1ffc0
181284:	23fc 0001 ffd6 0001 ffc4  movel #131030,0x1ffc4
18128e:	207c 0080 0021 	          moveal #8388641,%a0
181294:	117c 004e 0004 	          moveb #78,%a0@(4)
18129a:	117c 007e 0004 	          moveb #126,%a0@(4)
1812a0:	4a40           	          tstw %d0
1812a2:	660e           	          bnes 0x1812b2
1812a4:	6100 03b6      	          bsrw 0x18165c
1812a8:	0800 0010      	          btst #16,%d0
1812ac:	6704           	          beqs 0x1812b2
1812ae:	6100 03e4      	          bsrw 0x181694
1812b2:	123c 0000      	          moveb #0,%d1
1812b6:	08c1 0002      	          bset #2,%d1
1812ba:	1141 0006      	          moveb %d1,%a0@(6)
1812be:	4239 0001 fff7 	          clrb 0x1fff7
1812c4:	23fc 0001 ffe6 0001 ffc8  movel #131046,0x1ffc8
1812ce:	23fc 0001 ffe6 0001 ffcc  movel #131046,0x1ffcc
1812d8:	4a40           	          tstw %d0
1812da:	6656           	          bnes 0x181332
1812dc:	13fc 0006 0080 0081       moveb #0x06,0x800081 ;R..RG
1812e4:	1c3c 0016      	          moveb #22,%d6
1812e8:	3e3c 8089      	          movew #0x8089,%d7
1812ec:	2a3c 0001 0000 	          movel #0x10000,%d5
1812f2:	207c 0010 0000 	          moveal #0x10000,%a0 ;test first quadrant
1812f8:	6100 024c      	          bsrw 0x181546 ;test memory
1812fc:	6100 1e42      	          bsrw 0x183140 ;gray screen
181300:	4a40           	          tstw %d0
181302:	662a           	          bnes 0x18132e
181304:	207c 0012 0000 	          moveal #0x120000,%a0 ;test second quadrant
18130a:	6100 023a      	          bsrw 0x181546
18130e:	4a40           	          tstw %d0
181310:	661c           	          bnes 0x18132e
181312:	207c 0014 0000 	          moveal #0x140000,%a0 ;test third quadrant
181318:	6100 022c      	          bsrw 0x181546
18131c:	4a40           	          tstw %d0
18131e:	660e           	          bnes 0x18132e
181320:	207c 0016 0000 	          moveal #0x160000,%a0 ;test fourth quadrant
181326:	6100 021e      	          bsrw 0x181546
18132a:	4a40           	          tstw %d0
18132c:	6704           	          beqs 0x181332
18132e:	08c0 0013      	          bset #19,%d0
181332:	4e71           	          nop
181334:	4a79 000c 0000 	          tstw 0xc0000 ;retry_finite
18133a:	4a40           	          tstw %d0
18133c:	6646           	          bnes 0x181384
18133e:	0839 0004 0080 00c1       btst #4,0x8000c1 ;link available?
181346:	663c           	          bnes 0x181384
181348:	6100 04a8      	          bsrw 0x1817f2 ;test link, e lb no crc err
18134c:	4a40           	          tstw %d0
18134e:	6634           	          bnes 0x181384
181350:	0839 0004 0080 00c1       btst #4,0x8000c1 ;link available?
181358:	662a           	          bnes 0x181384
18135a:	6100 04b6      	          bsrw 0x181812 ;test link, e lb force crc err
18135e:	4a40           	          tstw %d0
181360:	6622           	          bnes 0x181384
181362:	0800 0010      	          btst #16,%d0 ;manufacturing mode?
181366:	671c           	          beqs 0x181384
181368:	0839 0004 0080 00c1       btst #4,0x8000c1 ;link available?
181370:	6612           	          bnes 0x181384
181372:	6100 04be      	          bsrw 0x181832 ;test link, o lb no crc err
181376:	0839 0004 0080 00c1       btst #4,0x8000c1 ;link available?
18137e:	6604           	          bnes 0x181384
181380:	6100 04ce      	          bsrw 0x181850 ;test link, o lb force crc err
181384:	4e71           	          nop
181386:	4a40           	          tstw %d0
181388:	6628           	          bnes 0x1813b2
18138a:	6100 058a      	          bsrw 0x181916 ;bba scratchpad test
18138e:	4a40           	          tstw %d0
181390:	6620           	          bnes 0x1813b2
181392:	46fc 2200      	          movew #0x2200,%sr
181396:	6100 05c6      	          bsrw 0x18195e ;bba command test
18139a:	0800 0010      	          btst #16,%d0 ;manufacturing mode?
18139e:	6600 fc54      	          bnew 0x180ff4 ;go to start
1813a2:	4a40           	          tstw %d0
1813a4:	660c           	          bnes 0x1813b2
1813a6:	6100 06c2      	          bsrw 0x181a6a ;keyboard test
1813aa:	4a40           	          tstw %d0
1813ac:	6604           	          bnes 0x1813b2
1813ae:	6100 0840      	          bsrw 0x181bf0 ;tablet test
1813b2:	0800 001c      	          btst #28,%d0
1813b6:	6706           	          beqs 0x1813be
1813b8:	6100 0a62      	          bsrw 0x181e1c ;set up unibus and bba
1813bc:	603a           	          bras 0x1813f8 ;stuff + command loop
1813be:	6100 ecc8      	          bsrw 0x180088
1813c2:	4a40           	          tstw %d0
1813c4:	670a           	          beqs 0x1813d0
1813c6:	08c0 0014      	          bset #20,%d0
1813ca:	6100 eccc      	          bsrw 0x180098
1813ce:	600c           	          bras 0x1813dc
1813d0:	13fc 000f 0080 0081       moveb #0x0F,0x800081 ;LED ....G
1813d8:	6100 ecd4      	          bsrw 0x1800ae
1813dc:	0800 0013      	          btst #19,%d0
1813e0:	6608           	          bnes 0x1813ea
1813e2:	207c 0018 0530 	          moveal #0x180530,%a0 ;login icon
1813e8:	6006           	          bras 0x1813f0
1813ea:	207c 0018 0990 	          moveal #0x180990,%a0 ;trouble icon
1813f0:	6100 fb94      	          bsrw 0x180f86  ;draw
1813f4:	323c 0080      	          movew #0x80,%d1 ;powerup done
1813f8:	6100 ed42      	          bsrw 0x18013c ;check link
1813fc:	46fc 2000      	          movew #0x2000,%sr
181400:	4242           	          clrw %d2
181402:	6100 09f2      	          bsrw 0x181df6 ;send powerup done to host
181406:	0800 001c      	          btst #28,%d0
18140a:	6600 096c      	          bnew 0x181d78 ;command loop?
;idle loop?
18140e:	2e7c 0001 ffc0 	          moveal #0x1FFC0,%sp
181414:	46fc 2000      	          movew #0x2000,%sr
181418:	6120           	          bsrs 0x18143a ;send mouse buttons
18141a:	6100 00ac      	          bsrw 0x1814c8 ;rom checksum
18141e:	611a           	          bsrs 0x18143a ;send mouse buttons
181420:	6100 00f4      	          bsrw 0x181516 ;ram test
181424:	6114           	          bsrs 0x18143a ;send mouse buttons
181426:	6100 0322      	          bsrw 0x18174a ;frame buffer test
18142a:	610e           	          bsrs 0x18143a ;send mouse buttons
18142c:	6100 04e8      	          bsrw 0x181916 ;BBA scratchpad test
181430:	6108           	          bsrs 0x18143a ;send mouse buttons
181432:	6100 052a      	          bsrw 0x18195e ;BBA command test
181436:	6102           	          bsrs 0x18143a ;send mouse buttons
181438:	60d4           	          bras 0x18140e ;loop

;send mouse buttons to host
18143a:	1439 0001 fff8 	          moveb 0x1fff8,%d2 ;mouse buttons
181440:	672a           	          beqs 0x18146c
181442:	4239 0001 fff8 	          clrb 0x1fff8
181448:	0839 0004 0080 00c1       btst #4,0x8000c1 ;link?
181450:	6722           	          beqs 0x181474
181452:	33fc 012c 0001 ffd4       movew #300,0x1ffd4 ;five second timeout
18145a:	0242 00ff      	          andiw #255,%d2
18145e:	0642 0200      	          addiw #512,%d2
181462:	323c 0008      	          movew #8,%d1
181466:	6100 098e      	          bsrw 0x181df6 ;send 0008/buttons to host
18146a:	601c           	          bras 0x181488
18146c:	4a79 0001 ffd4 	          tstw 0x1ffd4
181472:	6a14           	          bpls 0x181488   ;timed out?
181474:	207c 0018 0d4a 	          moveal #0x180d4a,%a0 ;unable to connect
18147a:	6100 fb0a      	          bsrw 0x180f86 ;draw icon
18147e:	08c0 0012      	          bset #18,%d0
181482:	4279 0001 ffd4 	          clrw 0x1ffd4
181488:	0839 0004 0080 00c1       btst #4,0x8000c1 ;link?
181490:	670e           	          beqs 0x1814a0
181492:	3239 0048 0000 	          movew 0x480000,%d1 ;CSR0
181498:	0801 0000      	          btst #0,%d1
18149c:	6600 08da      	          bnew 0x181d78 ;command loop
1814a0:	4a40           	          tstw %d0
1814a2:	6722           	          beqs 0x1814c6
1814a4:	0c40 8080      	          cmpiw #-32640,%d0
1814a8:	6e12           	          bgts 0x1814bc
1814aa:	0800 0014      	          btst #20,%d0
1814ae:	660c           	          bnes 0x1814bc
1814b0:	08c0 0014      	          bset #20,%d0
1814b4:	6100 ebd2      	          bsrw 0x180088
1814b8:	6100 ebde      	          bsrw 0x180098
1814bc:	3200           	          movew %d0,%d1
1814be:	4240           	          clrw %d0
1814c0:	4242           	          clrw %d2
1814c2:	6100 0932      	          bsrw 0x181df6 ;send 0000/0000 to host
1814c6:	4e75           	          rts

;rom checksum
1814c8:	48e7 7880      	          moveml %d1-%d4/%a0,%sp@-
1814cc:	0800 0014      	          btst #20,%d0
1814d0:	6608           	          bnes 0x1814da
1814d2:	13fc 000d 0080 0081       moveb #0x0D,0x800081 ;LED ..R.G
1814da:	207c 0018 0000 	          moveal #1572864,%a0
1814e0:	4201           	          clrb %d1
1814e2:	4202           	          clrb %d2
1814e4:	263c 000c 1a6d 	          movel #793197,%d3
1814ea:	1818           	          moveb %a0@+,%d4
1814ec:	b901           	          eorb %d4,%d1
1814ee:	1818           	          moveb %a0@+,%d4
1814f0:	b902           	          eorb %d4,%d2
1814f2:	51cb fff6      	          dbf %d3,0x1814ea
1814f6:	b218           	          cmpb %a0@+,%d1
1814f8:	6604           	          bnes 0x1814fe
1814fa:	b410           	          cmpb %a0@,%d2
1814fc:	6712           	          beqs 0x181510
1814fe:	0800 0014      	          btst #20,%d0
181502:	6608           	          bnes 0x18150c
181504:	13fc 001d 0080 0081       moveb #0x1D,0x800081 ;LED ..R.-
18150c:	303c 8082      	          movew #-32638,%d0
181510:	4cdf 011e      	          moveml %sp@+,%d1-%d4/%a0
181514:	4e75           	          rts

;Test RAM.
181516:	48e7 0780      	          moveml %d5-%a0,%sp@-
18151a:	0800 0014      	          btst #20,%d0
18151e:	660c           	          bnes 0x18152c
181520:	13fc 000c 0080 0081       moveb #0x0C,0x800081 ;LED ..RRG
181528:	1c3c 001c      	          moveb #28,%d6
18152c:	3e3c 8083      	          movew #0x8083,%d7
181530:	2a3c 0000 ff40 	          movel #0xFF40,%d5
181536:	207c 0000 0080 	          moveal #0x80,%a0
18153c:	6100 0008      	          bsrw 0x181546
181540:	4cdf 01e0      	          moveml %sp@+,%d5-%a0
181544:	4e75           	          rts

;Test memory region.
;a0=address
;d5=length in words
;d7=error code?
181546:	48e7 70c0      	          moveml %d1-%d3/%a0-%a1,%sp@-
18154a:	2248           	          moveal %a0,%a1
18154c:	2405           	          movel %d5,%d2
18154e:	323c aaaa      	          movew #0xAAAA,%d1
181552:	32c1           	          movew %d1,%a1@+
181554:	5382           	          subql #1,%d2
181556:	66fa           	          bnes 0x181552
181558:	3401           	          movew %d1,%d2
18155a:	323c 5555      	          movew #0x5555,%d1
18155e:	612a           	          bsrs 0x18158a
181560:	4a40           	          tstw %d0
181562:	6620           	          bnes 0x181584
181564:	3401           	          movew %d1,%d2
181566:	323c 3333      	          movew #0x3333,%d1
18156a:	611e           	          bsrs 0x18158a
18156c:	4a40           	          tstw %d0
18156e:	6614           	          bnes 0x181584
181570:	3401           	          movew %d1,%d2
181572:	323c 0f0f      	          movew #0x0F0F,%d1
181576:	6112           	          bsrs 0x18158a
181578:	4a40           	          tstw %d0
18157a:	6608           	          bnes 0x181584
18157c:	3401           	          movew %d1,%d2
18157e:	323c 00ff      	          movew #0xFF,%d1
181582:	6106           	          bsrs 0x18158a
181584:	4cdf 030e      	          moveml %sp@+,%d1-%d3/%a0-%a1
181588:	4e75           	          rts

;check_fb_memory
18158a:	2248           	          moveal %a0,%a1
18158c:	2605           	          movel %d5,%d3
18158e:	b451           	          cmpw %a1@,%d2
181590:	6608           	          bnes 0x18159a
181592:	32c1           	          movew %d1,%a1@+
181594:	5383           	          subql #1,%d3
181596:	66f6           	          bnes 0x18158e
181598:	6014           	          bras 0x1815ae
18159a:	0800 0014      	          btst #20,%d0
18159e:	660c           	          bnes 0x1815ac
1815a0:	13c6 0080 0081 	          moveb %d6,0x800081
1815a6:	0800 0010      	          btst #16,%d0
1815aa:	66de           	          bnes 0x18158a
1815ac:	3007           	          movew %d7,%d0
1815ae:	4e75           	          rts

test_crtc:
1815b0:	13fc 000b 0080 0081       moveb #0x0B,0x800081 ;LED .R..G
1815b8:	46fc 2700      	          movew #0x2700,%sr
1815bc:	207c 0080 00a1 	          moveal #0x8000A1,%a0 ;CRT controller
1815c2:	323c 00ff      	          movew #255,%d1
1815c6:	10bc 000f      	          moveb #15,%a0@
1815ca:	1141 0002      	          moveb %d1,%a0@(2)
1815ce:	b228 0002      	          cmpb %a0@(2),%d1
1815d2:	661c           	          bnes 0x1815f0
1815d4:	51c9 fff4      	          dbf %d1,0x1815ca
1815d8:	323c 003f      	          movew #63,%d1
1815dc:	10bc 000e      	          moveb #14,%a0@
1815e0:	1141 0002      	          moveb %d1,%a0@(2)
1815e4:	b228 0002      	          cmpb %a0@(2),%d1
1815e8:	6606           	          bnes 0x1815f0
1815ea:	51c9 fff4      	          dbf %d1,0x1815e0
1815ee:	6016           	          bras 0x181606
1815f0:	13fc 001b 0080 0081       moveb #0x1B,0x800081 ;LED .R..-
1815f8:	0800 0010      	          btst #16,%d0
1815fc:	66c4           	          bnes 0x1815c2
1815fe:	303c 8084      	          movew #0x8084,%d0
181602:	08c0 0013      	          bset #19,%d0
181606:	4e75           	          rts

test_vsync:
181608:	13fc 0007 0080 0081       moveb #0x07,0x800081 ;LED R...G
181610:	0880 0019      	          bclr #25,%d0
181614:	46fc 2500      	          movew #0x2500,%sr
181618:	223c 0001 b580 	          movel #112000,%d1
18161e:	5381           	          subql #1,%d1
181620:	66fc           	          bnes 0x18161e
181622:	0800 0019      	          btst #25,%d0
181626:	6616           	          bnes 0x18163e
181628:	13fc 0017 0080 0081       moveb #0x17,0x800081 ;LED R...-
181630:	0800 0010      	          btst #16,%d0
181634:	66da           	          bnes 0x181610
181636:	303c 8088      	          movew #0x8088,%d0
18163a:	08c0 0013      	          bset #19,%d0
18163e:	4e75           	          rts

181640:	46fc 2200      	          movew #0x2200,%sr
181644:	13fc 0009 0080 0081       moveb #0x09,0x800081 ;LED .RR.G
18164c:	1c3c 0019      	          moveb #0x19,%d6 ;LED .RR.-
181650:	3e3c 8086      	          movew #0x806,%d7
181654:	207c 0080 0001 	          moveal #0x800001,%a0
18165a:	6054           	          bras 0x1816b0

18165c:	46fc 2300      	          movew #0x2300,%sr    ;
181660:	13fc 000a 0080 0081       moveb #0x0A,0x800081 ;LED .R.RG
181668:	1c3c 001a      	          moveb #26,%d6 ;LED .R.R-
18166c:	3e3c 8085      	          movew #-32635,%d7
181670:	207c 0080 0021 	          moveal #0x800021,%a0
181676:	6038           	          bras 0x1816b0

181678:	46fc 2200      	          movew #0x2200,%sr
18167c:	13fc 0001 0080 0081       moveb #0x01,0x800081 ;LED RRR.G
181684:	1c3c 0011      	          moveb #17,%d6 ;LED RRR.-
181688:	3e3c 808e      	          movew #-32626,%d7
18168c:	207c 0080 0001 	          moveal #0x800001,%a0
181692:	602e           	          bras 0x1816c2

181694:	46fc 2300      	          movew #0x2300,%sr
181698:	13fc 0003 0080 0081       moveb #3,0x800081 ;LED RR..G
1816a0:	1c3c 0013      	          moveb #19,%d6
1816a4:	3e3c 808c      	          movew #-32628,%d7
1816a8:	207c 0080 0021 	          moveal #0x800021,%a0
1816ae:	6012           	          bras 0x1816c2

1816b0:	1a3c 0080      	          moveb #0x80,%d5
1816b4:	08c5 0000      	          bset #0,%d5
1816b8:	08c5 0001      	          bset #1,%d5
1816bc:	08c5 0005      	          bset #5,%d5
1816c0:	600c           	          bras 0x1816ce

1816c2:	1a3c 0000      	          moveb #0,%d5
1816c6:	08c5 0000      	          bset #0,%d5
1816ca:	08c5 0002      	          bset #2,%d5
1816ce:	48e7 7800      	          moveml %d1-%d4,%sp@-
1816d2:	1145 0006      	          moveb %d5,%a0@(6)
1816d6:	0828 0001 0002 	          btst #1,%a0@(2)
1816dc:	6702           	          beqs 0x1816e0
1816de:	1210           	          moveb %a0@,%d1
1816e0:	323c 00ff      	          movew #255,%d1
1816e4:	283c 0001 b580 	          movel #112000,%d4
1816ea:	0828 0000 0002 	          btst #0,%a0@(2)
1816f0:	6608           	          bnes 0x1816fa
1816f2:	5384           	          subql #1,%d4
1816f4:	66f4           	          bnes 0x1816ea
1816f6:	6000 003e      	          braw 0x181736
1816fa:	1081           	          moveb %d1,%a0@
1816fc:	283c 0001 b580 	          movel #112000,%d4
181702:	0828 0001 0002 	          btst #1,%a0@(2)
181708:	6608           	          bnes 0x181712
18170a:	5384           	          subql #1,%d4
18170c:	66f4           	          bnes 0x181702
18170e:	6000 0026      	          braw 0x181736
181712:	1410           	          moveb %a0@,%d2
181714:	1628 0002      	          moveb %a0@(2),%d3
181718:	0803 0004      	          btst #4,%d3
18171c:	6606           	          bnes 0x181724
18171e:	0803 0005      	          btst #5,%d3
181722:	6708           	          beqs 0x18172c
181724:	08e8 0004 0006 	          bset #4,%a0@(6)
18172a:	6004           	          bras 0x181730
18172c:	b202           	          cmpb %d2,%d1
18172e:	6606           	          bnes 0x181736
181730:	51c9 ffb2      	          dbf %d1,0x1816e4
181734:	600e           	          bras 0x181744
181736:	13c6 0080 0081 	          moveb %d6,0x800081 ;LED .RR.-
18173c:	0800 0010      	          btst #16,%d0
181740:	6694           	          bnes 0x1816d6
181742:	1007           	          moveb %d7,%d0
181744:	4cdf 001e      	          moveml %sp@+,%d1-%d4
181748:	4e75           	          rts

;frame buffer test
18174a:	48e7 0780      	          moveml %d5-%a0,%sp@-
18174e:	0800 0014      	          btst #20,%d0
181752:	660c           	          bnes 0x181760
181754:	13fc 0006 0080 0081       moveb #6,0x800081 ;LED R..RG
18175c:	1c3c 0016      	          moveb #22,%d6
181760:	3e3c 8089      	          movew #0x8089,%d7
181764:	0800 0016      	          btst #22,%d0 ;maint menu?
181768:	670e           	          beqs 0x181778
18176a:	2a3c 0001 0000 	          movel #65536,%d5
181770:	207c 0010 0000 	          moveal #1048576,%a0
181776:	600c           	          bras 0x181784
181778:	2a3c 0000 1a80 	          movel #6784,%d5
18177e:	207c 0011 cb00 	          moveal #1166080,%a0
181784:	6100 fdc0      	          bsrw 0x181546
181788:	4a40           	          tstw %d0
18178a:	664e           	          bnes 0x1817da
18178c:	0800 0016      	          btst #22,%d0
181790:	6604           	          bnes 0x181796
181792:	6100 fca6      	          bsrw 0x18143a ;send mouse buttons
181796:	2a3c 0001 0000 	          movel #65536,%d5
18179c:	207c 0012 0000 	          moveal #1179648,%a0
1817a2:	6100 fda2      	          bsrw 0x181546
1817a6:	4a40           	          tstw %d0
1817a8:	6630           	          bnes 0x1817da
1817aa:	0800 0016      	          btst #22,%d0
1817ae:	6604           	          bnes 0x1817b4
1817b0:	6100 fc88      	          bsrw 0x18143a ;send mouse buttons
1817b4:	207c 0014 0000 	          moveal #1310720,%a0
1817ba:	6100 fd8a      	          bsrw 0x181546
1817be:	4a40           	          tstw %d0
1817c0:	6618           	          bnes 0x1817da
1817c2:	0800 0016      	          btst #22,%d0
1817c6:	6604           	          bnes 0x1817cc
1817c8:	6100 fc70      	          bsrw 0x18143a ;send mouse buttons
1817cc:	207c 0016 0000 	          moveal #1441792,%a0
1817d2:	6100 fd72      	          bsrw 0x181546
1817d6:	4a40           	          tstw %d0
1817d8:	6704           	          beqs 0x1817de
1817da:	303c 8089      	          movew #-32631,%d0
1817de:	0800 0016      	          btst #22,%d0
1817e2:	6708           	          beqs 0x1817ec
1817e4:	6100 17f0      	          bsrw 0x182fd6
1817e8:	0880 0015      	          bclr #21,%d0
1817ec:	4cdf 01e0      	          moveml %sp@+,%d5-%a0
1817f0:	4e75           	          rts

;test link: no error, electrical loopback
1817f2:	13fc 0008 0080 0081       moveb #8,0x800081 ;LED .RRRG
1817fa:	1c3c 0018      	          moveb #0x18,%d6 ;LED .RRR-
1817fe:	3e3c 8087      	          movew #-32633,%d7
181802:	46fc 2700      	          movew #0x2700,%sr
181806:	13fc 0002 0080 0041       moveb #2,0x800041 ;fibre, e loopback
18180e:	6000 005e      	          braw 0x18186e

;test link: crc error, electrical loopback
181812:	13fc 0008 0080 0081       moveb #8,0x800081 ;LED .RRRG
18181a:	1c3c 0018      	          moveb #24,%d6 ;LED .RRR-
18181e:	3e3c 8087      	          movew #-32633,%d7
181822:	46fc 2700      	          movew #0x2700,%sr
181826:	13fc 0006 0080 0041       moveb #6,0x800041 ;crc error + loopback
18182e:	6000 0092      	          braw 0x1818c2

;test link: no error, optical loopback
181832:	13fc 0002 0080 0081       moveb #2,0x800081 ;LED RR.RG
18183a:	1c3c 0012      	          moveb #18,%d6 ;LED RR.R-
18183e:	3e3c 808d      	          movew #-32627,%d7
181842:	46fc 2700      	          movew #0x2700,%sr
181846:	13fc 0003 0080 0041       moveb #3,0x800041 ;fibre, o loopback
18184e:	601e           	          bras 0x18186e

;test link: crc error, optical loopback
181850:	13fc 0002 0080 0081       moveb #2,0x800081 ;LED RR.RG
181858:	1c3c 0012      	          moveb #0x12,%d6 ;LED RR.R-
18185c:	3e3c 808d      	          movew #-32627,%d7
181860:	46fc 2700      	          movew #0x2700,%sr
181864:	13fc 0007 0080 0041       moveb #7,0x800041 ;crc error + loopback
18186c:	6054           	          bras 0x1818c2

;test link with crc error, fibre control set up before
18186e:	323c 0230      	          movew #560,%d1
181872:	51c9 fffe      	          dbf %d1,0x181872
181876:	323c aaaa      	          movew #0xAAAA,%d1
18187a:	33c1 0048 0004 	          movew %d1,0x480004 ;CSR2
181880:	0839 0002 0080 00c1       btst #2,0x8000c1 ;NXM?
181888:	6624           	          bnes 0x1818ae
18188a:	b279 004a 0004 	          cmpw 0x4a0004,%d1 ;CSR2
181890:	661c           	          bnes 0x1818ae
181892:	323c 5555      	          movew #0x5555,%d1
181896:	33c1 0048 0004 	          movew %d1,0x480004 ;CSR2
18189c:	0839 0002 0080 00c1       btst #2,0x8000c1
1818a4:	6608           	          bnes 0x1818ae
1818a6:	b279 004a 0004 	          cmpw 0x4a0004,%d1
1818ac:	6712           	          beqs 0x1818c0
1818ae:	13c6 0080 0081 	          moveb %d6,0x800081
1818b4:	0800 0010      	          btst #16,%d0
1818b8:	66bc           	          bnes 0x181876
1818ba:	3007           	          movew %d7,%d0
1818bc:	08c0 0013      	          bset #19,%d0
1818c0:	4e75           	          rts

;test link without crc error, fibre control set up before
1818c2:	323c 0230      	          movew #560,%d1
1818c6:	51c9 fffe      	          dbf %d1,0x1818c6
1818ca:	323c aaaa      	          movew #0xAAAA,%d1
1818ce:	33c1 0048 0004 	          movew %d1,0x480004 ;CSR2
1818d4:	0839 0002 0080 00c1       btst #2,0x8000c1 ;NXM?
1818dc:	6724           	          beqs 0x181902
1818de:	b279 004a 0004 	          cmpw 0x4a0004,%d1
1818e4:	661c           	          bnes 0x181902
1818e6:	323c 5555      	          movew #0x5555,%d1
1818ea:	33c1 0048 0004 	          movew %d1,0x480004 ;CSR2
1818f0:	0839 0002 0080 00c1       btst #2,0x8000c1
1818f8:	671a           	          beqs 0x181914
1818fa:	b279 004a 0004 	          cmpw 0x4a0004,%d1
181900:	6712           	          beqs 0x181914
181902:	13c6 0080 0081 	          moveb %d6,0x800081
181908:	0800 0010      	          btst #16,%d0
18190c:	66bc           	          bnes 0x1818ca
18190e:	3007           	          movew %d7,%d0
181910:	08c0 0013      	          bset #19,%d0
181914:	4e75           	          rts

;BBA scratchpad test
181916:	0800 0011      	          btst #17,%d0
18191a:	6606           	          bnes 0x181922
18191c:	08c0 001a      	          bset #26,%d0
181920:	603a           	          bras 0x18195c
181922:	48e7 0f80      	          moveml %d4-%a0,%sp@-
181926:	0800 0014      	          btst #20,%d0
18192a:	660c           	          bnes 0x181938
18192c:	13fc 0005 0080 0081       moveb #5,0x800081 ;LED R.R.G
181934:	1c3c 0015      	          moveb #21,%d6
181938:	3e3c 808a      	          movew #-32630,%d7
18193c:	3839 0030 01fe 	          movew 0x3001fe,%d4
181942:	2a3c 0000 0100 	          movel #256,%d5
181948:	207c 0030 0000 	          moveal #0x300000,%a0
18194e:	6100 fbf6      	          bsrw 0x181546
181952:	33c4 0030 01fe 	          movew %d4,0x3001fe
181958:	4cdf 01f0      	          moveml %sp@+,%d4-%a0
18195c:	4e75           	          rts

;bba command test
18195e:	0800 0011      	          btst #17,%d0
181962:	6608           	          bnes 0x18196c
181964:	08c0 001a      	          bset #26,%d0
181968:	6000 00fe      	          braw 0x181a68
18196c:	48e7 4080      	          moveml %d1/%a0,%sp@-
181970:	0800 0014      	          btst #20,%d0
181974:	6608           	          bnes 0x18197e
181976:	13fc 0004 0080 0081       moveb #4,0x800081 ;LED R.RRG
18197e:	207c 0012 0000 	          moveal #0x120000,%a0
181984:	20fc aaaa aaaa 	          movel #0xAAAAAAAA,%a0@+
18198a:	20fc 5555 5555 	          movel #0x55555555,%a0@+
181990:	20fc aaaa aaaa 	          movel #0xAAAAAAAA,%a0@+
181996:	4298           	          clrl %a0@+
181998:	4298           	          clrl %a0@+
18199a:	207c 0012 0088 	          moveal #0x120088,%a0
1819a0:	20fc 5555 5555 	          movel #0x55555555,%a0@+
1819a6:	20fc aaaa aaaa 	          movel #0xAAAAAAAA,%a0@+
1819ac:	20fc 5555 5555 	          movel #0x55555555,%a0@+
1819b2:	4298           	          clrl %a0@+
1819b4:	4298           	          clrl %a0@+
1819b6:	207c 0030 0000 	          moveal #0x300000,%a0
1819bc:	30fc 0003      	          movew #3,%a0@+
1819c0:	20fc 0012 0000 	          movel #0x120000,%a0@+
1819c6:	30fc 0001      	          movew #1,%a0@+
1819ca:	30fc 0088      	          movew #136,%a0@+
1819ce:	20fc 0012 0000 	          movel #0x120000,%a0@+
1819d4:	30fc 0032      	          movew #50,%a0@+
1819d8:	30fc 0088      	          movew #136,%a0@+
1819dc:	20fc 0012 0000 	          movel #0x120000,%a0@+
1819e2:	30fc 0060      	          movew #96,%a0@+
1819e6:	30fc 0088      	          movew #136,%a0@+
1819ea:	30fc 0030      	          movew #48,%a0@+
1819ee:	30fc 0002      	          movew #2,%a0@+
1819f2:	30fc 0003      	          movew #3,%a0@+
1819f6:	0880 0018      	          bclr #24,%d0
1819fa:	13fc 0001 0028 0000       moveb #1,0x280000 ;bba go
181a02:	223c 0008 8b80 	          movel #560000,%d1
181a08:	0800 0018      	          btst #24,%d0  ;bba done?
181a0c:	6606           	          bnes 0x181a14
181a0e:	5381           	          subql #1,%d1
181a10:	66f6           	          bnes 0x181a08
181a12:	6032           	          bras 0x181a46
181a14:	207c 0012 000c 	          moveal #0x12000c,%a0
181a1a:	0c58 1555      	          cmpiw #0x1555,%a0@+
181a1e:	662a           	          bnes 0x181a4a
181a20:	0c58 8000      	          cmpiw #0x8000,%a0@+
181a24:	6624           	          bnes 0x181a4a
181a26:	0c50 2aaa      	          cmpiw #0x2AAA,%a0@
181a2a:	661e           	          bnes 0x181a4a
181a2c:	207c 0012 0094 	          moveal #0x120094,%a0
181a32:	0c58 2aaa      	          cmpiw #0x2AAA,%a0@+
181a36:	6612           	          bnes 0x181a4a
181a38:	0c58 0000      	          cmpiw #0,%a0@+
181a3c:	660c           	          bnes 0x181a4a
181a3e:	0c58 1555      	          cmpiw #0x1555,%a0@+
181a42:	6720           	          beqs 0x181a64
181a44:	6004           	          bras 0x181a4a
181a46:	08c0 001b      	          bset #27,%d0
181a4a:	0800 0014      	          btst #20,%d0
181a4e:	6608           	          bnes 0x181a58
181a50:	13fc 0014 0080 0081       moveb #0x14,0x800081 ;LED RRR.-
181a58:	0800 0010      	          btst #16,%d0
181a5c:	6600 ff20      	          bnew 0x18197e
181a60:	303c 808b      	          movew #-32629,%d0
181a64:	4cdf 0102      	          moveml %sp@+,%d1/%a0
181a68:	4e75           	          rts

;keyboard test
181a6a:	48e7 7f80      	          moveml %d1-%a0,%sp@-
181a6e:	13fc 0000 0080 0081       moveb #0,0x800081    ;LED RRRRG
181a76:	46fc 2200      	          movew #0x2200,%sr    ;block keyboard interrupt
181a7a:	343c 0009      	          movew #9,%d2
181a7e:	207c 0080 0001 	          moveal #0x800001,%a0 ;keyboard
181a84:	08e8 0000 0006 	          bset #0,%a0@(6)      ;command, tx en
181a8a:	0828 0001 0002 	          btst #1,%a0@(2)      ;status, rx rdy?
181a90:	6702           	          beqs 0x181a94
181a92:	1210           	          moveb %a0@,%d1       ;rx
181a94:	50c4           	          st %d4
181a96:	50c5           	          st %d5
181a98:	50c6           	          st %d6
181a9a:	50c7           	          st %d7
181a9c:	223c 0001 b580 	          movel #112000,%d1
181aa2:	0828 0000 0002 	          btst #0,%a0@(2)      ;status, tx rdy?
181aa8:	6608           	          bnes 0x181ab2
181aaa:	5381           	          subql #1,%d1
181aac:	66f4           	          bnes 0x181aa2
181aae:	6000 00d4      	          braw 0x181b84
181ab2:	10bc 00fd      	          moveb #0xFD,%a0@    ;tx FD
181ab6:	223c 0001 b580 	          movel #112000,%d1
181abc:	0828 0001 0002 	          btst #1,%a0@(2)     ;status, rx rdy?
181ac2:	6608           	          bnes 0x181acc
181ac4:	5381           	          subql #1,%d1
181ac6:	66f4           	          bnes 0x181abc
181ac8:	6000 00ba      	          braw 0x181b84
181acc:	1810           	          moveb %a0@,%d4      ;rx
181ace:	1628 0002      	          moveb %a0@(2),%d3   ;status
181ad2:	0803 0004      	          btst #4,%d3         ;status, overrun?
181ad6:	6606           	          bnes 0x181ade
181ad8:	0803 0005      	          btst #5,%d3         ;status, framing?
181adc:	6706           	          beqs 0x181ae4
181ade:	08e8 0004 0006 	          bset #4,%a0@(6)     ;command, reset serror
181ae4:	223c 0001 b580 	          movel #112000,%d1
181aea:	0828 0001 0002 	          btst #1,%a0@(2)     ;status, rx rdy?
181af0:	6608           	          bnes 0x181afa
181af2:	5381           	          subql #1,%d1
181af4:	66f4           	          bnes 0x181aea
181af6:	6000 008c      	          braw 0x181b84
181afa:	1a10           	          moveb %a0@,%d5      ;rx
181afc:	1628 0002      	          moveb %a0@(2),%d3   ;status
181b00:	0803 0004      	          btst #4,%d3
181b04:	6606           	          bnes 0x181b0c
181b06:	0803 0005      	          btst #5,%d3
181b0a:	6706           	          beqs 0x181b12
181b0c:	08e8 0004 0006 	          bset #4,%a0@(6)
181b12:	223c 0001 b580 	          movel #112000,%d1
181b18:	0828 0001 0002 	          btst #1,%a0@(2)    ;staus, rx rdy?
181b1e:	6608           	          bnes 0x181b28
181b20:	5381           	          subql #1,%d1
181b22:	66f4           	          bnes 0x181b18
181b24:	6000 005e      	          braw 0x181b84
181b28:	1c10           	          moveb %a0@,%d6    ;rx
181b2a:	1628 0002      	          moveb %a0@(2),%d3 ;status
181b2e:	0803 0004      	          btst #4,%d3
181b32:	6606           	          bnes 0x181b3a
181b34:	0803 0005      	          btst #5,%d3
181b38:	6706           	          beqs 0x181b40
181b3a:	08e8 0004 0006 	          bset #4,%a0@(6)
181b40:	223c 0001 b580 	          movel #112000,%d1
181b46:	0828 0001 0002 	          btst #1,%a0@(2)   ;rx rdy?
181b4c:	6608           	          bnes 0x181b56
181b4e:	5381           	          subql #1,%d1
181b50:	66f4           	          bnes 0x181b46
181b52:	6000 0030      	          braw 0x181b84
181b56:	1e10           	          moveb %a0@,%d7    ;rx
181b58:	1628 0002      	          moveb %a0@(2),%d3 ;status
181b5c:	0803 0004      	          btst #4,%d3       ;overrun error
181b60:	6606           	          bnes 0x181b68
181b62:	0803 0005      	          btst #5,%d3       ;framing error
181b66:	6706           	          beqs 0x181b6e
181b68:	08e8 0004 0006 	          bset #4,%a0@(6)   ;cr, reset errors
181b6e:	0c06 003d      	          cmpib #61,%d6
181b72:	6606           	          bnes 0x181b7a
181b74:	51ca ff1e      	          dbf %d2,0x181a94
181b78:	601c           	          bras 0x181b96
181b7a:	4a06           	          tstb %d6
181b7c:	6618           	          bnes 0x181b96
181b7e:	4a07           	          tstb %d7
181b80:	6720           	          beqs 0x181ba2
181b82:	6012           	          bras 0x181b96
181b84:	13fc 0011 0080 0081       moveb #0x11,0x800081 ;LED RRR.-
181b8c:	303c 808e      	          movew #-32626,%d0
181b90:	08c0 001b      	          bset #27,%d0
181b94:	600c           	          bras 0x181ba2
181b96:	13fc 0010 0080 0081       moveb #0x10,0x800081 ;LED RRRR-
181b9e:	303c 808f      	          movew #-32625,%d0
181ba2:	0800 0016      	          btst #22,%d0
181ba6:	6742           	          beqs 0x181bea
181ba8:	1404           	          moveb %d4,%d2
181baa:	207c 0018 2c30 	          moveal #0x182c30,%a0;"Keyboard ID (firmware)"
181bb0:	6100 10e6      	          bsrw 0x182c98 ;print string
181bb4:	6100 1110      	          bsrw 0x182cc6
181bb8:	1405           	          moveb %d5,%d2
181bba:	207c 0018 2c4e 	          moveal #1584206,%a0 ;"Keyboard ID (software)"
181bc0:	6100 10d6      	          bsrw 0x182c98 ;print string
181bc4:	6100 1100      	          bsrw 0x182cc6
181bc8:	1406           	          moveb %d6,%d2
181bca:	671e           	          beqs 0x181bea
181bcc:	207c 0018 2c6c 	          moveal #1584236,%a0 ;"Error ="
181bd2:	6100 10c4      	          bsrw 0x182c98 ;print string
181bd6:	6100 10ee      	          bsrw 0x182cc6
181bda:	1407           	          moveb %d7,%d2
181bdc:	207c 0018 2c78 	          moveal #1584248,%a0 ;"Keycode ="
181be2:	6100 10b4      	          bsrw 0x182c98 ;print string
181be6:	6100 10de      	          bsrw 0x182cc6
181bea:	4cdf 01fe      	          moveml %sp@+,%d1-%a0
181bee:	4e75           	          rts

;
181bf0:	48e7 4080      	          moveml %d1/%a0,%sp@-
181bf4:	207c 0080 0021 	          moveal #0x800021,%a0
181bfa:	123c 0001      	          moveb #1,%d1
181bfe:	6100 e506      	          bsrw 0x180106
181c02:	0880 0017      	          bclr #23,%d0
181c06:	08e8 0000 0006 	          bset #0,%a0@(6)
181c0c:	223c 0001 b580 	          movel #112000,%d1
181c12:	0800 0017      	          btst #23,%d0
181c16:	6606           	          bnes 0x181c1e
181c18:	5381           	          subql #1,%d1
181c1a:	66f6           	          bnes 0x181c12
181c1c:	601a           	          bras 0x181c38
181c1e:	123c 0052      	          moveb #82,%d1
181c22:	6100 e4e2      	          bsrw 0x180106
181c26:	123c 0053      	          moveb #83,%d1
181c2a:	6100 e4da      	          bsrw 0x180106
181c2e:	123c 001b      	          moveb #27,%d1
181c32:	6100 e4d2      	          bsrw 0x180106
181c36:	6026           	          bras 0x181c5e
181c38:	123c 001b      	          moveb #27,%d1
181c3c:	6100 e4c8      	          bsrw 0x180106
181c40:	08e8 0000 0006 	          bset #0,%a0@(6)
181c46:	0800 0016      	          btst #22,%d0
181c4a:	672c           	          beqs 0x181c78
181c4c:	13fc 0013 0080 0081       moveb #0x13,0x800081 ;LED RR..G
181c54:	303c 808c      	          movew #-32628,%d0
181c58:	08c0 001b      	          bset #27,%d0
181c5c:	601a           	          bras 0x181c78
181c5e:	08e8 0000 0006 	          bset #0,%a0@(6)
181c64:	0800 0016      	          btst #22,%d0
181c68:	670e           	          beqs 0x181c78
181c6a:	207c 0018 2c86 	          moveal #1584262,%a0 ;"Data Pad reset"
181c70:	6100 1026      	          bsrw 0x182c98 ;print string
181c74:	08c0 0015      	          bset #21,%d0
181c78:	4cdf 0102      	          moveml %sp@+,%d1/%a0
181c7c:	4e75           	          rts

181c7e:	d0fc 0002      	          addaw #2,%a0
181c82:	2218           	          movel %a0@+,%d1
181c84:	4841           	          swap %d1
181c86:	2418           	          movel %a0@+,%d2
181c88:	4842           	          swap %d2
181c8a:	2242           	          moveal %d2,%a1
181c8c:	2418           	          movel %a0@+,%d2
181c8e:	4842           	          swap %d2
181c90:	2042           	          moveal %d2,%a0
181c92:	b1c9           	          cmpal %a1,%a0
181c94:	620c           	          bhis 0x181ca2
181c96:	6716           	          beqs 0x181cae
181c98:	e289           	          lsrl #1,%d1
181c9a:	30d9           	          movew %a1@+,%a0@+
181c9c:	5381           	          subql #1,%d1
181c9e:	66fa           	          bnes 0x181c9a
181ca0:	600c           	          bras 0x181cae
181ca2:	d3c1           	          addal %d1,%a1
181ca4:	d1c1           	          addal %d1,%a0
181ca6:	e289           	          lsrl #1,%d1
181ca8:	3121           	          movew %a1@-,%a0@-
181caa:	5381           	          subql #1,%d1
181cac:	66fa           	          bnes 0x181ca8
181cae:	4e75           	          rts

181cb0:	223c 0000 0100 	          movel #256,%d1
181cb6:	4841           	          swap %d1
181cb8:	20c1           	          movel %d1,%a0@+
181cba:	30fc 0003      	          movew #3,%a0@+
181cbe:	30fc 0000      	          movew #0,%a0@+
181cc2:	223c 0010 0000 	          movel #0x100000,%d1
181cc8:	4841           	          swap %d1
181cca:	20c1           	          movel %d1,%a0@+
181ccc:	30fc 0440      	          movew #1088,%a0@+
181cd0:	30fc 0360      	          movew #864,%a0@+
181cd4:	30fc 0001      	          movew #1,%a0@+
181cd8:	223c 0011 cb00 	          movel #0x11cb00,%d1
181cde:	4841           	          swap %d1
181ce0:	20c1           	          movel %d1,%a0@+
181ce2:	223c 0006 3500 	          movel #406784,%d1
181ce8:	4841           	          swap %d1
181cea:	20c1           	          movel %d1,%a0@+
181cec:	7200           	          moveq #0,%d1
181cee:	4841           	          swap %d1
181cf0:	20c1           	          movel %d1,%a0@+
181cf2:	223c 0002 0000 	          movel #131072,%d1
181cf8:	4841           	          swap %d1
181cfa:	20c1           	          movel %d1,%a0@+
181cfc:	223c 0008 0000 	          movel #0x80000,%d1
181d02:	4841           	          swap %d1
181d04:	20c1           	          movel %d1,%a0@+
181d06:	223c 0004 0000 	          movel #262144,%d1
181d0c:	4841           	          swap %d1
181d0e:	2081           	          movel %d1,%a0@
181d10:	4e75           	          rts

;host command dispatch table
181d12:	00181e1c	;command 1 - Init (setup Unibus and BBA)
181d16:	00181e54	;Send_Command_packet
181d1a:	00181e92	;Start_Display_Firmware
181d1e:	00181ea2	;d1=0x8000
181d22:	00181ea8	;Reset
181d26:	00181eb8	;d1=0x8000
181d2a:	00181eb8
181d2e:	00181eb8
181d32:	00181eb8
181d36:	00181eb8
181d3a:	00181eb8
181d3e:	00181eb8
181d42:	00181eb8
181d46:	00181eb8
181d4a:	00181eb8
181d4e:	00181ebe	;d1=0x8000
181d52:	00181ec4	;d1=0x8000
181d56:	00181eca	;command 18 - clear infinite retry counter?
181d5a:	00181ed6	;clear finite retry counter?

;dispatch table for Send_Command_Packet
181d5e:	00181c7e	;Move_Object (copy memory)
181d62:	00181cb0	;Report_Status (info about frame buffer and unibus)

trap1_handler:
181d66:	46fc 2700      	          movew #0x2700,%sr
181d6a:	203c 0000 ffff 	          movel #65535,%d0
181d70:	08c0 001c      	          bset #28,%d0
181d74:	6000 f37e      	          braw 0x1810f4

;command loop?
181d78:	2e7c 0001 ffc0 	          moveal #0x1ffc0,%sp
181d7e:	46fc 2000      	          movew #0x2000,%sr
181d82:	13fc 000f 0080 0081       moveb #0x0F,0x800081 ;LED ....G
181d8a:	6100 e2fc      	          bsrw 0x180088
181d8e:	4279 0001 ffd4 	          clrw 0x1ffd4
181d94:	223c 000a e62d 	          movel #714285,%d1
181d9a:	0839 0004 0080 00c1       btst #4,0x8000c1 ;status, link?
181da2:	6710           	          beqs 0x181db4
181da4:	3039 0048 0000 	          movew 0x480000,%d0 ;CSR0 - control/status
181daa:	0880 0000      	          bclr #0,%d0
181dae:	6612           	          bnes 0x181dc2
181db0:	5381           	          subql #1,%d1
181db2:	66e6           	          bnes 0x181d9a
181db4:	4240           	          clrw %d0
181db6:	33fc ffff 0001 ffd4       movew #-1,0x1ffd4
181dbe:	6000 f64e      	          braw 0x18140e
181dc2:	33c0 0048 0000 	          movew %d0,0x480000
181dc8:	e248           	          lsrw #1,%d0
181dca:	0240 001f      	          andiw #31,%d0 ;function code
181dce:	5340           	          subqw #1,%d0
181dd0:	6b16           	          bmis 0x181de8
181dd2:	0c40 0012      	          cmpiw #18,%d0
181dd6:	6e10           	          bgts 0x181de8
181dd8:	207c 0018 1d12 	          moveal #0x181d12,%a0
181dde:	e540           	          aslw #2,%d0
181de0:	2070 0000      	          moveal %a0@(%d0:w),%a0 ;dispatch
181de4:	4e90           	          jsr %a0@
181de6:	6004           	          bras 0x181dec
181de8:	323c 8001      	          movew #0x8001,%d1
181dec:	4242           	          clrw %d2
181dee:	6100 0006      	          bsrw 0x181df6 ;send 8001/0000 to host
181df2:	6000 ffa0      	          braw 0x181d94

;send to host?
181df6:	0839 0004 0080 00c1       btst #4,0x8000c1 ;link available?
181dfe:	671a           	          beqs 0x181e1a
181e00:	4a79 0048 0002 	          tstw 0x480002 ;CSR1 - interrupt reason
181e06:	66ee           	          bnes 0x181df6
181e08:	33c1 0048 0002 	          movew %d1,0x480002
181e0e:	33c2 0048 0004 	          movew %d2,0x480004 ;CSR2 - peripheral event
181e14:	4a79 004c 0000 	          tstw 0x4c0000      ;host interrupt
181e1a:	4e75           	          rts

;init
181e1c:	223c 0008 0000 	          movel #0x80000,%d1 ;unibus
181e22:	4841           	          swap %d1
181e24:	23c1 0048 0006 	          movel %d1,0x480006 ;CSR3+4 - Unibus address
181e2a:	33fc 0500 0048 000a       movew #1280,0x48000a ;CSR5 - firmware version
181e32:	0800 0011      	          btst #17,%d0  ;BBA present?
181e36:	6604           	          bnes 0x181e3c
181e38:	4241           	          clrw %d1     ;no
181e3a:	600c           	          bras 0x181e48
181e3c:	3239 0030 01fe 	          movew 0x3001fe,%d1 ;yes
181e42:	33c1 0030 01fe 	          movew %d1,0x3001fe
181e48:	33c1 0048 000c 	          movew %d1,0x48000c ;CSR6 - BBA version
181e4e:	323c 0001      	          movew #1,%d1 ;init done
181e52:	4e75           	          rts

;command packet
181e54:	2239 0048 0006 	          movel 0x480006,%d1 ;CSR3+4 - function param
181e5a:	4841           	          swap %d1
181e5c:	2041           	          moveal %d1,%a0
181e5e:	2218           	          movel %a0@+,%d1
181e60:	4841           	          swap %d1
181e62:	d1fc 0000 0004 	          addal #4,%a0
181e68:	0241 00ff      	          andiw #255,%d1
181e6c:	0441 0080      	          subiw #128,%d1
181e70:	6b1a           	          bmis 0x181e8c
181e72:	0c41 0001      	          cmpiw #1,%d1
181e76:	6e14           	          bgts 0x181e8c
181e78:	227c 0018 1d5e 	          moveal #0x181d5e,%a1
181e7e:	e541           	          aslw #2,%d1
181e80:	2271 1000      	          moveal %a1@(%d1:w),%a1
181e84:	4e91           	          jsr %a1@
181e86:	323c 0002      	          movew #2,%d1 ;command done
181e8a:	6004           	          bras 0x181e90
181e8c:	323c 8002      	          movew #0x8002,%d1 ;command error
181e90:	4e75           	          rts

;start firmware
181e92:	46fc 2700      	          movew #0x2700,%sr
181e96:	2039 0048 0006 	          movel 0x480006,%d0 ;CSR3+4 - func parm
181e9c:	4840           	          swap %d0
181e9e:	2040           	          moveal %d0,%a0
181ea0:	4ed0           	          jmp %a0@

181ea2:	323c 8000      	          movew #0x8000,%d1
181ea6:	4e75           	          rts

;reset
181ea8:	46fc 2700      	          movew #0x2700,%sr
181eac:	207c 0018 0000 	          moveal #0x18000,%a0 ;ROM
181eb2:	2e58           	          moveal %a0@+,%sp
181eb4:	2050           	          moveal %a0@,%a0
181eb6:	4ed0           	          jmp %a0@

181eb8:	323c 8000      	          movew #0x8000,%d1
181ebc:	4e75           	          rts

181ebe:	323c 8000      	          movew #0x8000,%d1
181ec2:	4e75           	          rts

181ec4:	323c 8000      	          movew #0x8000,%d1
181ec8:	4e75           	          rts

181eca:	4a79 000e 0000 	          tstw 0xe0000
181ed0:	323c 0002      	          movew #2,%d1 ;command done
181ed4:	4e75           	          rts

181ed6:	4a79 000c 0000 	          tstw 0xc0000
181edc:	323c 0002      	          movew #2,%d1 ;command done
181ee0:	4e75           	          rts

;font data
; !"#$%&'()*+,-./
181ee2:	0000 0000 0000 0000 0000 0000 0000 0000
;0123456789:;<=>?
181ef2:	0000 0000 0000 0000 0000 0000 0000 0000
;@ABCDEFGHIJKLMNO
182002:	0008 0000 1000 0000 0000 0000 0000 0000
;PQRSTUVWXYZ[\]^_
182012: 0000 0000 0000 0000 0000 0000 0000 003c
;`abcdefghijklmno
182022: 0000 0000 0000 0000 0000 0000 0000 0000
;pqrstuvwxyz{|}~
      ...
182040:	1000           	          moveb %d0,%d0
      ...
18205e:	0000 4c00      	          orib #0,%d0
182062:	0008           	          .short 0x0008
182064:	2400           	          movel %d0,%d2
182066:	108c           	          .short 0x108c
182068:	0c18 2004      	          cmpib #4,%a0@+
18206c:	0000 0000      	          orib #0,%d0
182070:	0080 1810 3c7e 	          oril #403717246,%d0
182076:	207e           	          .short 0x207e
182078:	3c7e           	          .short 0x3c7e
18207a:	3c3c 0000      	          movew #0,%d6
18207e:	4000           	          negxb %d0
182080:	0442 3c18      	          subiw #15384,%d2
182084:	3e3c 3e7e      	          movew #15998,%d7
182088:	7e3c           	          moveq #60,%d7
18208a:	423c           	          .short 0x423c
18208c:	3042           	          moveaw %d2,%a0
18208e:	02c6           	          .short 0x02c6
182090:	423c           	          .short 0x423c
182092:	3e3c 3e3c      	          movew #15932,%d7
182096:	7e42           	          moveq #66,%d7
182098:	8282           	          orl %d2,%d1
18209a:	8282           	          orl %d2,%d1
18209c:	7e3c           	          moveq #60,%d7
18209e:	023c 2800      	          andib #0,%ccr
1820a2:	1800           	          moveb %d0,%d4
1820a4:	0200 4000      	          andib #0,%d0
1820a8:	3800           	          movew %d0,%d4
1820aa:	0200 0002      	          andib #2,%d0
1820ae:	0c00 0000      	          cmpib #0,%d0
      ...
1820ba:	0000 0070      	          orib #112,%d0
1820be:	100e           	          .short 0x100e
1820c0:	3200           	          movew %d0,%d1
1820c2:	0008           	          .short 0x0008
1820c4:	2424           	          movel %a4@-,%d2
1820c6:	3892           	          movew %a2@,%a4@
1820c8:	1208           	          .short 0x1208
1820ca:	1008           	          .short 0x1008
1820cc:	0000 0000      	          orib #0,%d0
1820d0:	0080 2418 4240 	          oril #605569600,%d0
1820d6:	3002           	          movew %d2,%d0
1820d8:	0240 4242      	          andiw #16962,%d0
1820dc:	0000 2000      	          orib #0,%d0
1820e0:	0842 4224      	          bchg #36,%d2
1820e4:	4242           	          clrw %d2
1820e6:	4202           	          clrb %d2
1820e8:	0242 4208      	          andiw #16904,%d2
1820ec:	2022           	          movel %a2@-,%d0
1820ee:	02aa 4242 4242 	          andil #1111638594,%a2@(16962)
1820f4:	4242 
1820f6:	0842 8282      	          bchg #-126,%d2
1820fa:	8282           	          orl %d2,%d1
1820fc:	4004           	          negxb %d4
1820fe:	0220 4400      	          andib #0,%a0@-
182102:	1000           	          moveb %d0,%d0
182104:	0200 4000      	          andib #0,%d0
182108:	4400           	          negb %d0
18210a:	0208           	          .short 0x0208
18210c:	0002 0800      	          orib #0,%d2
182110:	0000 0000      	          orib #0,%d0
182114:	0000 0800      	          orib #0,%d0
182118:	0000 0000      	          orib #0,%d0
18211c:	0008           	          .short 0x0008
18211e:	1010           	          moveb %a0@,%d0
182120:	0000 0008      	          orib #8,%d0
182124:	2424           	          movel %a4@-,%d2
182126:	444c           	          .short 0x444c
182128:	1204           	          moveb %d4,%d1
18212a:	1008           	          .short 0x1008
18212c:	2410           	          movel %a0@,%d2
18212e:	0000 0040      	          orib #64,%d0
182132:	4214           	          clrb %a4@
182134:	4020           	          negxb %a0@-
182136:	2802           	          movel %d2,%d4
182138:	0220 4242      	          andib #66,%a0@-
18213c:	0c0c           	          .short 0x0c0c
18213e:	1000           	          moveb %d0,%d0
182140:	1040           	          .short 0x1040
182142:	4242           	          clrw %d2
182144:	4202           	          clrb %d2
182146:	4202           	          clrb %d2
182148:	0202 4208      	          andib #8,%d2
18214c:	2012           	          movel %a2@,%d0
18214e:	02aa 4642 4242 	          andil #1178747458,%a2@(16898)
182154:	4202 
182156:	0842 4482      	          bchg #-126,%d2
18215a:	4444           	          negw %d4
18215c:	2004           	          movel %d4,%d0
18215e:	0420 0000      	          subib #0,%a0@-
182162:	2000           	          movel %d0,%d0
182164:	0200 4000      	          andib #0,%d0
182168:	0400 0200      	          subib #0,%d0
18216c:	1002           	          moveb %d2,%d0
18216e:	0800 0000      	          btst #0,%d0
182172:	0000 0000      	          orib #0,%d0
182176:	0800 0000      	          btst #0,%d0
18217a:	0000 0008      	          orib #8,%d0
18217e:	1010           	          moveb %a0@,%d0
182180:	0000 0008      	          orib #8,%d0
182184:	007e           	          .short 0x007e
182186:	0420 1200      	          subib #0,%a0@-
18218a:	0810 1810      	          btst #16,%a0@
18218e:	007e           	          .short 0x007e
182190:	0020 4210      	          orib #16,%a0@-
182194:	4010           	          negxb %a0@
182196:	243a 0210      	          movel %pc@(0x1823a8),%d2
18219a:	4262           	          clrw %a2@-
18219c:	0c0c           	          .short 0x0c0c
18219e:	087e           	          .short 0x087e
1821a0:	2020           	          movel %a0@-,%d0
1821a2:	7242           	          moveq #66,%d1
1821a4:	4202           	          clrb %d2
1821a6:	4202           	          clrb %d2
1821a8:	0202 4208      	          andib #8,%d2
1821ac:	200a           	          movel %a2,%d0
1821ae:	02aa 4a42 4242 	          andil #1245856322,%a2@(16898)
1821b4:	4202 
1821b6:	0842 4482      	          bchg #-126,%d2
1821ba:	2828 1004      	          movel %a0@(4100),%d4
1821be:	0820 0000      	          btst #0,%a0@-
1821c2:	003c 3e3c      	          orib #60,%ccr
1821c6:	7c3c           	          moveq #60,%d6
1821c8:	043c           	          .short 0x043c
1821ca:	3e08           	          movew %a0,%d7
1821cc:	0022 086e      	          orib #110,%a2@-
1821d0:	3e3c 3a5c      	          movew #14940,%d7
1821d4:	3c3c 3c42      	          movew #15426,%d6
1821d8:	2282           	          movel %d2,%a1@
1821da:	4242           	          clrw %d2
1821dc:	7e10           	          moveq #16,%d7
1821de:	1008           	          .short 0x1008
1821e0:	0000 0008      	          orib #8,%d0
1821e4:	0024 3810      	          orib #16,%a4@-
1821e8:	0c00 0810      	          cmpib #16,%d0
1821ec:	7e7c           	          moveq #124,%d7
1821ee:	0000 0010      	          orib #16,%d0
1821f2:	4210           	          clrb %a0@
1821f4:	3838 2246      	          movew 0x2246,%d4
1821f8:	3a10           	          movew %a0@,%d5
1821fa:	3c5c           	          moveaw %a4@+,%fp
1821fc:	0000 0400      	          orib #0,%d0
182200:	4010           	          negxb %a0@
182202:	4a42           	          tstw %d2
182204:	3e02           	          movew %d2,%d7
182206:	421e           	          clrb %fp@+
182208:	1e02           	          moveb %d2,%d7
18220a:	7e08           	          moveq #8,%d7
18220c:	2006           	          movel %d6,%d0
18220e:	0292 5242 3e42 	          andil #1380073026,%a2@
182214:	3e3c 0842      	          movew #2114,%d7
182218:	4492           	          negl %a2@
18221a:	1010           	          moveb %a0@,%d0
18221c:	0804 1020      	          btst #32,%d4
182220:	0000 0040      	          orib #64,%d0
182224:	4242           	          clrw %d2
182226:	4242           	          clrw %d2
182228:	1e42           	          .short 0x1e42
18222a:	4208           	          .short 0x4208
18222c:	1812           	          moveb %a2@,%d4
18222e:	0892 4242      	          bclr #66,%a2@
182232:	4662           	          notw %a2@-
182234:	4402           	          negb %d2
182236:	0842 2282      	          bchg #-126,%d2
18223a:	2442           	          moveal %d2,%a2
18223c:	200c           	          movel %a4,%d0
18223e:	1030 0000      	          moveb %a0@(0000000000000000,%d0:w),%d0
182242:	0008           	          .short 0x0008
182244:	007e           	          .short 0x007e
182246:	4008           	          .short 0x4008
182248:	5200           	          addqb #1,%d0
18224a:	0810 1810      	          btst #16,%a0@
18224e:	0000 0008      	          orib #8,%d0
182252:	4210           	          clrb %a0@
182254:	0440 7e40      	          subiw #32320,%d0
182258:	4608           	          .short 0x4608
18225a:	4240           	          clrw %d0
18225c:	0000 0800      	          orib #0,%d0
182260:	2008           	          movel %a0,%d0
182262:	6a7e           	          bpls 0x1822e2
182264:	4202           	          clrb %d2
182266:	4202           	          clrb %d2
182268:	0232 4208 200a 	          andib #8,%a2@(000000000000000a,%d2:w)
18226e:	0282 6242 0242 	          andil #1648493122,%d2
182274:	0a40 0842      	          eoriw #2114,%d0
182278:	2892           	          movel %a2@,%a4@
18227a:	2810           	          movel %a0@,%d4
18227c:	0404 2020      	          subib #32,%d4
182280:	0000 007c      	          orib #124,%d0
182284:	4202           	          clrb %d2
182286:	427e           	          .short 0x427e
182288:	0442 4208      	          subiw #16904,%d2
18228c:	100e           	          .short 0x100e
18228e:	0892 4242      	          bclr #66,%a2@
182292:	4242           	          clrw %d2
182294:	043c           	          .short 0x043c
182296:	0842 2292      	          bchg #-110,%d2
18229a:	1842           	          .short 0x1842
18229c:	1010           	          moveb %a0@,%d0
18229e:	1008           	          .short 0x1008
1822a0:	0000 0008      	          orib #8,%d0
1822a4:	0024 4464      	          orib #100,%a4@-
1822a8:	2200           	          movel %d0,%d1
1822aa:	1008           	          .short 0x1008
1822ac:	2410           	          movel %a0@,%d2
1822ae:	0000 0004      	          orib #4,%d0
1822b2:	4210           	          clrb %a0@
1822b4:	0240 2040      	          andiw #8256,%d0
1822b8:	4208           	          .short 0x4208
1822ba:	4240           	          clrw %d0
1822bc:	0000 107e      	          orib #126,%d0
1822c0:	1008           	          .short 0x1008
1822c2:	5242           	          addqw #1,%d2
1822c4:	4202           	          clrb %d2
1822c6:	4202           	          clrb %d2
1822c8:	0242 4208      	          andiw #16904,%d2
1822cc:	2012           	          movel %a2@,%d0
1822ce:	0282 4242 024a 	          andil #1111622218,%d2
1822d4:	1240           	          .short 0x1240
1822d6:	0842 2892      	          bchg #-110,%d2
1822da:	4410           	          negb %a0@
1822dc:	0204 4020      	          andib #32,%d4
1822e0:	0000 0042      	          orib #66,%d0
1822e4:	4202           	          clrb %d2
1822e6:	4202           	          clrb %d2
1822e8:	0442 4208      	          subiw #16904,%d2
1822ec:	1012           	          moveb %a2@,%d0
1822ee:	0892 4242      	          bclr #66,%a2@
1822f2:	4662           	          notw %a2@-
1822f4:	0440 0842      	          subiw #2114,%d0
1822f8:	1492           	          moveb %a2@,%a2@
1822fa:	1842           	          .short 0x1842
1822fc:	0808           	          .short 0x0808
1822fe:	1010           	          moveb %a0@,%d0
182300:	0000 0000      	          orib #0,%d0
182304:	0024 3892      	          orib #-110,%a4@-
182308:	2200           	          movel %d0,%d1
18230a:	1008           	          .short 0x1008
18230c:	0000 0c00      	          orib #0,%d0
182310:	0c02 2410      	          cmpib #16,%d2
182314:	0242 2042      	          andiw #8258,%d2
182318:	4204           	          clrb %d4
18231a:	4240           	          clrw %d0
18231c:	0c0c           	          .short 0x0c0c
18231e:	2000           	          movel %d0,%d0
182320:	0800 0242      	          btst #66,%d0
182324:	4242           	          clrw %d2
182326:	4202           	          clrb %d2
182328:	0242 4208      	          andiw #16904,%d2
18232c:	2222           	          movel %a2@-,%d1
18232e:	0282 4242 0252 	          andil #1111622226,%d2
182334:	2242           	          moveal %d2,%a1
182336:	0842 28aa      	          bchg #-86,%d2
18233a:	8210           	          orb %a0@,%d1
18233c:	0204 8020      	          andib #32,%d4
182340:	0000 0042      	          orib #66,%d0
182344:	4242           	          clrw %d2
182346:	4202           	          clrb %d2
182348:	043c           	          .short 0x043c
18234a:	4208           	          .short 0x4208
18234c:	1022           	          moveb %a2@-,%d0
18234e:	0882 4242      	          bclr #66,%d2
182352:	3a5c           	          moveaw %a4@+,%a5
182354:	0442 0842      	          subiw #2114,%d2
182358:	14aa 243c      	          moveb %a2@(9276),%a2@
18235c:	0408           	          .short 0x0408
18235e:	1010           	          moveb %a0@,%d0
182360:	0000 0008      	          orib #8,%d0
182364:	0000 1062      	          orib #98,%d0
182368:	5c00           	          addqb #6,%d0
18236a:	2004           	          movel %d4,%d0
18236c:	0000 0400      	          orib #0,%d0
182370:	0c02 187c      	          cmpib #124,%d2
182374:	7e3c           	          moveq #60,%d7
182376:	203c 3c04 3c3c 	          movel #1006910524,%d0
18237c:	0c04 4000      	          cmpib #0,%d4
182380:	0408           	          .short 0x0408
182382:	3c42           	          moveaw %d2,%fp
182384:	3e3c 3e7e      	          movew #15998,%d7
182388:	023c 423c      	          andib #60,%ccr
18238c:	1c42           	          .short 0x1c42
18238e:	7e82           	          moveq #-126,%d7
182390:	423c           	          .short 0x423c
182392:	023c 423c      	          andib #60,%ccr
182396:	083c           	          .short 0x083c
182398:	1044           	          .short 0x1044
18239a:	8210           	          orb %a0@,%d1
18239c:	7e3c           	          moveq #60,%d7
18239e:	803c 0000      	          orb #0,%d0
1823a2:	007c 3e3c      	          oriw #15932,%sr
1823a6:	7c3c           	          moveq #60,%d6
1823a8:	0440 423c      	          subiw #16956,%d0
1823ac:	1042           	          .short 0x1042
1823ae:	3c82           	          movew %d2,%fp@
1823b0:	423c           	          .short 0x423c
1823b2:	0240 043c      	          andiw #1084,%d0
1823b6:	183c 0844      	          moveb #68,%d4
1823ba:	4240           	          clrw %d0
1823bc:	7e70           	          moveq #112,%d7
1823be:	100e           	          .short 0x100e
1823c0:	0000 0000      	          orib #0,%d0
1823c4:	0000 1000      	          orib #0,%d0
1823c8:	0000 0000      	          orib #0,%d0
1823cc:	0000 0200      	          orib #0,%d0
      ...
1823dc:	0002 0000      	          orib #0,%d2
      ...
1823f0:	0000 0040      	          orib #64,%d0
      ...
182400:	00ff           	          .short 0x00ff
182402:	0000 0000      	          orib #0,%d0
182406:	0000 0040      	          orib #64,%d0
18240a:	0000 1000      	          orib #0,%d0
18240e:	0000 0000      	          orib #0,%d0
182412:	0240 0000      	          andiw #0,%d0
182416:	0000 0000      	          orib #0,%d0
18241a:	0040 0000      	          oriw #0,%d0
      ...
182466:	0000 003c      	          orib #60,%d0
18246a:	0000 0e00      	          orib #0,%d0
18246e:	0000 0000      	          orib #0,%d0
182472:	0240 0000      	          andiw #0,%d0
182476:	0000 0000      	          orib #0,%d0
18247a:	003e           	          .short 0x003e
18247c:	0000 0000      	          orib #0,%d0
182480:	0000 8d8d      	          orib #-115,%d0
182484:	89
182485: 56           	          "VS100 Maintenance Mode -- Hit function key F4 to exit to Powerup "
182486:	5331 3030      	          subqb #1,%a1@(0000000000000030,%d3:w)
18248a:	204d           	          moveal %a5,%a0
18248c:	6169           	          bsrs 0x1824f7
18248e:	6e74           	          bgts 0x182504
182490:	656e           	          bcss 0x182500
182492:	616e           	          bsrs 0x182502
182494:	6365           	          blss 0x1824fb
182496:	204d           	          moveal %a5,%a0
182498:	6f64           	          bles 0x1824fe
18249a:	6520           	          bcss 0x1824bc
18249c:	2d2d 2048      	          movel %a5@(8264),%fp@-
1824a0:	6974           	          bvss 0x182516
1824a2:	2066           	          moveal %fp@-,%a0
1824a4:	756e           	          .short 0x756e
1824a6:	6374           	          blss 0x18251c
1824a8:	696f           	          bvss 0x182519
1824aa:	6e20           	          bgts 0x1824cc
1824ac:	6b65           	          bmis 0x182513
1824ae:	7920           	          .short 0x7920
1824b0:	4634 2074      	          notb %a4@(0000000000000074,%d2:w)
1824b4:	6f20           	          bles 0x1824d6
1824b6:	6578           	          bcss 0x182530
1824b8:	6974           	          bvss 0x18252e
1824ba:	2074 6f20 506f 	          moveal %a4@(000000000000506f,%d6:l:8),%a0
1824c0:	7765           	          .short 0x7765
1824c2:	7275           	          moveq #117,%d1
1824c4:	7020           	          moveq #32,%d0
1824c6:	8d89           	          .short 0x8d89
1824c8:	8956           	          orw %d4,%fp@
1824ca:	6572           	          bcss 0x18253e
1824cc:	7369           	          .short 0x7369
1824ce:	6f6e           	          bles 0x18253e
1824d0:	2080           	          movel %d0,%a0@
1824d2:	894d           	          .short 0x894d
1824d4:	6169           	          bsrs 0x18253f
1824d6:	6e20           	          bgts 0x1824f8
1824d8:	4d65           	          .short 0x4d65
1824da:	6e75           	          bgts 0x182551
1824dc:	8d8d           	          .short 0x8d8d
1824de:	8d89           	          .short 0x8d89
1824e0:	4e75           	          rts
1824e2:	6d65           	          blts 0x182549
1824e4:	7269           	          moveq #105,%d1
1824e6:	6320           	          blss 0x182508
1824e8:	4b65           	          .short 0x4b65
1824ea:	7970           	          .short 0x7970
1824ec:	6164           	          bsrs 0x182552
1824ee:	204f           	          moveal %sp,%a0
1824f0:	7074           	          moveq #116,%d0
1824f2:	696f           	          bvss 0x182563
1824f4:	6e73           	          bgts 0x182569
1824f6:	3a20           	          movew %a0@-,%d5
1824f8:	8d8d           	          .short 0x8d8d
1824fa:	892e 2020      	          orb %d4,%fp@(8224)
1824fe:	2052           	          moveal %a2@,%a0
182500:	6573           	          bcss 0x182575
182502:	746f           	          moveq #111,%d2
182504:	7265           	          moveq #101,%d1
182506:	204d           	          moveal %a5,%a0
182508:	656e           	          bcss 0x182578
18250a:	7520           	          .short 0x7520
18250c:	8d89           	          .short 0x8d89
18250e:	3020           	          movew %a0@-,%d0
182510:	2020           	          movel %a0@-,%d0
182512:	4450           	          negw %a0@
182514:	4d20           	          chkl %a0@-,%d6
182516:	5465           	          addqw #2,%a5@-
182518:	7374           	          .short 0x7374
18251a:	7320           	          .short 0x7320
18251c:	8d89           	          .short 0x8d89
18251e:	3120           	          movew %a0@-,%a0@-
182520:	2020           	          movel %a0@-,%d0
182522:	4b65           	          .short 0x4b65
182524:	7962           	          .short 0x7962
182526:	6f61           	          bles 0x182589
182528:	7264           	          moveq #100,%d1
18252a:	2054           	          moveal %a4@,%a0
18252c:	6573           	          bcss 0x1825a1
18252e:	7473           	          moveq #115,%d2
182530:	8d89           	          .short 0x8d89
182532:	3220           	          movew %a0@-,%d1
182534:	2020           	          movel %a0@-,%d0
182536:	4d6f           	          .short 0x4d6f
182538:	7573           	          .short 0x7573
18253a:	6520           	          bcss 0x18255c
18253c:	5465           	          addqw #2,%a5@-
18253e:	7374           	          .short 0x7374
182540:	8d89           	          .short 0x8d89
182542:	3320           	          movew %a0@-,%a1@-
182544:	2020           	          movel %a0@-,%d0
182546:	4d6f           	          .short 0x4d6f
182548:	6e69           	          bgts 0x1825b3
18254a:	746f           	          moveq #111,%d2
18254c:	7220           	          moveq #32,%d1
18254e:	5465           	          addqw #2,%a5@-
182550:	7374           	          .short 0x7374
182552:	2050           	          moveal %a0@,%a0
182554:	6174           	          bsrs 0x1825ca
182556:	7465           	          moveq #101,%d2
182558:	726e           	          moveq #110,%d1
18255a:	7320           	          .short 0x7320
18255c:	8d89           	          .short 0x8d89
18255e:	3420           	          movew %a0@-,%d2
182560:	2020           	          movel %a0@-,%d0
182562:	4461           	          negw %a1@-
182564:	7461           	          moveq #97,%d2
182566:	2050           	          moveal %a0@,%a0
182568:	6164           	          bsrs 0x1825ce
18256a:	2054           	          moveal %a4@,%a0
18256c:	6573           	          bcss 0x1825e1
18256e:	7473           	          moveq #115,%d2
182570:	8d89           	          .short 0x8d89
182572:	3520           	          movew %a0@-,%a2@-
182574:	2020           	          movel %a0@-,%d0
182576:	4669 6272      	          notw %a1@(25202)
18257a:	6520           	          bcss 0x18259c
18257c:	5465           	          addqw #2,%a5@-
18257e:	7374           	          .short 0x7374
182580:	7320           	          .short 0x7320
182582:	8d89           	          .short 0x8d89
182584:	3620           	          movew %a0@-,%d3
182586:	2020           	          movel %a0@-,%d0
182588:	4242           	          clrw %d2
18258a:	4120           	          chkl %a0@-,%d0
18258c:	5465           	          addqw #2,%a5@-
18258e:	7374           	          .short 0x7374
182590:	7380           	          .short 0x7380
182592:	8944           	          .short 0x8944
182594:	504d           	          addqw #8,%a5
182596:	2054           	          moveal %a4@,%a0
182598:	6573           	          bcss 0x18260d
18259a:	7473           	          moveq #115,%d2
18259c:	8d8d           	          .short 0x8d8d
18259e:	8d89           	          .short 0x8d89
1825a0:	4e75           	          rts
1825a2:	6d65           	          blts 0x182609
1825a4:	7269           	          moveq #105,%d1
1825a6:	6320           	          blss 0x1825c8
1825a8:	4b65           	          .short 0x4b65
1825aa:	7970           	          .short 0x7970
1825ac:	6164           	          bsrs 0x182612
1825ae:	204f           	          moveal %sp,%a0
1825b0:	7074           	          moveq #116,%d0
1825b2:	696f           	          bvss 0x182623
1825b4:	6e73           	          bgts 0x182629
1825b6:	3a20           	          movew %a0@-,%d5
1825b8:	8d8d           	          .short 0x8d8d
1825ba:	892e 2020      	          orb %d4,%fp@(8224)
1825be:	2052           	          moveal %a2@,%a0
1825c0:	6573           	          bcss 0x182635
1825c2:	746f           	          moveq #111,%d2
1825c4:	7265           	          moveq #101,%d1
1825c6:	204d           	          moveal %a5,%a0
1825c8:	656e           	          bcss 0x182638
1825ca:	7520           	          .short 0x7520
1825cc:	8d89           	          .short 0x8d89
1825ce:	3020           	          movew %a0@-,%d0
1825d0:	2020           	          movel %a0@-,%d0
1825d2:	5265           	          addqw #1,%a5@-
1825d4:	7475           	          moveq #117,%d2
1825d6:	726e           	          moveq #110,%d1
1825d8:	2074 6f20 4d61 	          moveal %a4@(0000000000004d61,%d6:l:8),%a0
1825de:	696e           	          bvss 0x18264e
1825e0:	204d           	          moveal %a5,%a0
1825e2:	656e           	          bcss 0x182652
1825e4:	7520           	          .short 0x7520
1825e6:	8d89           	          .short 0x8d89
1825e8:	3120           	          movew %a0@-,%a0@-
1825ea:	2020           	          movel %a0@-,%d0
1825ec:	524f           	          addqw #1,%sp
1825ee:	4d20           	          chkl %a0@-,%d6
1825f0:	4368           	          .short 0x4368
1825f2:	6563           	          bcss 0x182657
1825f4:	6b73           	          bmis 0x182669
1825f6:	756d           	          .short 0x756d
1825f8:	2054           	          moveal %a4@,%a0
1825fa:	6573           	          bcss 0x18266f
1825fc:	7420           	          moveq #32,%d2
1825fe:	8d89           	          .short 0x8d89
182600:	3220           	          movew %a0@-,%d1
182602:	2020           	          movel %a0@-,%d0
182604:	5072 6f67 7261 	          addqw #8,%a2@(0000000000007261)@(000000006d204d65)
18260a:	6d20 4d65 
18260e:	6d6f           	          blts 0x18267f
182610:	7279           	          moveq #121,%d1
182612:	2054           	          moveal %a4@,%a0
182614:	6573           	          bcss 0x182689
182616:	7420           	          moveq #32,%d2
182618:	8d89           	          .short 0x8d89
18261a:	3320           	          movew %a0@-,%a1@-
18261c:	2020           	          movel %a0@-,%d0
18261e:	4352           	          .short 0x4352
182620:	5420           	          addqb #2,%a0@-
182622:	436f           	          .short 0x436f
182624:	6e74           	          bgts 0x18269a
182626:	726f           	          moveq #111,%d1
182628:	6c6c           	          bges 0x182696
18262a:	6572           	          bcss 0x18269e
18262c:	2052           	          moveal %a2@,%a0
18262e:	6567           	          bcss 0x182697
182630:	6973           	          bvss 0x1826a5
182632:	7465           	          moveq #101,%d2
182634:	7220           	          moveq #32,%d1
182636:	5465           	          addqw #2,%a5@-
182638:	7374           	          .short 0x7374
18263a:	8d89           	          .short 0x8d89
18263c:	3420           	          movew %a0@-,%d2
18263e:	2020           	          movel %a0@-,%d0
182640:	5363           	          subqw #1,%a3@-
182642:	7265           	          moveq #101,%d1
182644:	656e           	          bcss 0x1826b4
182646:	2042           	          moveal %d2,%a0
182648:	7566           	          .short 0x7566
18264a:	6665           	          bnes 0x1826b1
18264c:	7220           	          moveq #32,%d1
18264e:	4d65           	          .short 0x4d65
182650:	6d6f           	          blts 0x1826c1
182652:	7279           	          moveq #121,%d1
182654:	2054           	          moveal %a4@,%a0
182656:	6573           	          bcss 0x1826cb
182658:	7480           	          moveq #-128,%d2
18265a:	894b           	          .short 0x894b
18265c:	6579           	          bcss 0x1826d7
18265e:	626f           	          bhis 0x1826cf
182660:	6172           	          bsrs 0x1826d4
182662:	6420           	          bccs 0x182684
182664:	5465           	          addqw #2,%a5@-
182666:	7374           	          .short 0x7374
182668:	7320           	          .short 0x7320
18266a:	8d8d           	          .short 0x8d8d
18266c:	8d89           	          .short 0x8d89
18266e:	4e75           	          rts
182670:	6d65           	          blts 0x1826d7
182672:	7269           	          moveq #105,%d1
182674:	6320           	          blss 0x182696
182676:	4b65           	          .short 0x4b65
182678:	7970           	          .short 0x7970
18267a:	6164           	          bsrs 0x1826e0
18267c:	204f           	          moveal %sp,%a0
18267e:	7074           	          moveq #116,%d0
182680:	696f           	          bvss 0x1826f1
182682:	6e73           	          bgts 0x1826f7
182684:	3a20           	          movew %a0@-,%d5
182686:	8d8d           	          .short 0x8d8d
182688:	892e 2020      	          orb %d4,%fp@(8224)
18268c:	2052           	          moveal %a2@,%a0
18268e:	6573           	          bcss 0x182703
182690:	746f           	          moveq #111,%d2
182692:	7265           	          moveq #101,%d1
182694:	204d           	          moveal %a5,%a0
182696:	656e           	          bcss 0x182706
182698:	7520           	          .short 0x7520
18269a:	8d89           	          .short 0x8d89
18269c:	3020           	          movew %a0@-,%d0
18269e:	2020           	          movel %a0@-,%d0
1826a0:	5265           	          addqw #1,%a5@-
1826a2:	7475           	          moveq #117,%d2
1826a4:	726e           	          moveq #110,%d1
1826a6:	2074 6f20 4d61 	          moveal %a4@(0000000000004d61,%d6:l:8),%a0
1826ac:	696e           	          bvss 0x18271c
1826ae:	204d           	          moveal %a5,%a0
1826b0:	656e           	          bcss 0x182720
1826b2:	7520           	          .short 0x7520
1826b4:	8d89           	          .short 0x8d89
1826b6:	3120           	          movew %a0@-,%a0@-
1826b8:	2020           	          movel %a0@-,%d0
1826ba:	4b65           	          .short 0x4b65
1826bc:	7962           	          .short 0x7962
1826be:	6f61           	          bles 0x182721
1826c0:	7264           	          moveq #100,%d1
1826c2:	2055           	          moveal %a5@,%a0
1826c4:	5341           	          subqw #1,%d1
1826c6:	5254           	          addqw #1,%a4@
1826c8:	2054           	          moveal %a4@,%a0
1826ca:	6573           	          bcss 0x18273f
1826cc:	7420           	          moveq #32,%d2
1826ce:	8d89           	          .short 0x8d89
1826d0:	3220           	          movew %a0@-,%d1
1826d2:	2020           	          movel %a0@-,%d0
1826d4:	4b65           	          .short 0x4b65
1826d6:	7962           	          .short 0x7962
1826d8:	6f61           	          bles 0x18273b
1826da:	7264           	          moveq #100,%d1
1826dc:	2053           	          moveal %a3@,%a0
1826de:	656c           	          bcss 0x18274c
1826e0:	662d           	          bnes 0x18270f
1826e2:	5465           	          addqw #2,%a5@-
1826e4:	7374           	          .short 0x7374
1826e6:	8d89           	          .short 0x8d89
1826e8:	3320           	          movew %a0@-,%a1@-
1826ea:	2020           	          movel %a0@-,%d0
1826ec:	4b65           	          .short 0x4b65
1826ee:	7962           	          .short 0x7962
1826f0:	6f61           	          bles 0x182753
1826f2:	7264           	          moveq #100,%d1
1826f4:	2042           	          moveal %d2,%a0
1826f6:	7574           	          .short 0x7574
1826f8:	746f           	          moveq #111,%d2
1826fa:	6e20           	          bgts 0x18271c
1826fc:	5465           	          addqw #2,%a5@-
1826fe:	7374           	          .short 0x7374
182700:	2080           	          movel %d0,%a0@
182702:	894b           	          .short 0x894b
182704:	6579           	          bcss 0x18277f
182706:	626f           	          bhis 0x182777
182708:	6172           	          bsrs 0x18277c
18270a:	6420           	          bccs 0x18272c
18270c:	4275 7474      	          clrw %a5@(0000000000000074,%d7:w:4)
182710:	6f6e           	          bles 0x182780
182712:	2054           	          moveal %a4@,%a0
182714:	6573           	          bcss 0x182789
182716:	7420           	          moveq #32,%d2
182718:	8d8d           	          .short 0x8d8d
18271a:	8d89           	          .short 0x8d89
18271c:	4e75           	          rts
18271e:	6d65           	          blts 0x182785
182720:	7269           	          moveq #105,%d1
182722:	6320           	          blss 0x182744
182724:	4b65           	          .short 0x4b65
182726:	7970           	          .short 0x7970
182728:	6164           	          bsrs 0x18278e
18272a:	204f           	          moveal %sp,%a0
18272c:	7074           	          moveq #116,%d0
18272e:	696f           	          bvss 0x18279f
182730:	6e73           	          bgts 0x1827a5
182732:	3a20           	          movew %a0@-,%d5
182734:	8d8d           	          .short 0x8d8d
182736:	892e 2020      	          orb %d4,%fp@(8224)
18273a:	2052           	          moveal %a2@,%a0
18273c:	6573           	          bcss 0x1827b1
18273e:	746f           	          moveq #111,%d2
182740:	7265           	          moveq #101,%d1
182742:	204d           	          moveal %a5,%a0
182744:	656e           	          bcss 0x1827b4
182746:	7520           	          .short 0x7520
182748:	8d8d           	          .short 0x8d8d
18274a:	8943           	          .short 0x8943
18274c:	7572           	          .short 0x7572
18274e:	7265           	          moveq #101,%d1
182750:	6e74           	          bgts 0x1827c6
182752:	2042           	          moveal %d2,%a0
182754:	7574           	          .short 0x7574
182756:	746f           	          moveq #111,%d2
182758:	6e20           	          bgts 0x18277a
18275a:	5374 6174 6520 	          subqw #1,%a4@(0000000065203d20)@(0000000000000000)
182760:	3d20 
182762:	2480           	          movel %d0,%a2@
182764:	894d           	          .short 0x894d
182766:	6f75           	          bles 0x1827dd
182768:	7365           	          .short 0x7365
18276a:	2054           	          moveal %a4@,%a0
18276c:	6573           	          bcss 0x1827e1
18276e:	7420           	          moveq #32,%d2
182770:	8d8d           	          .short 0x8d8d
182772:	8d89           	          .short 0x8d89
182774:	4e75           	          rts
182776:	6d65           	          blts 0x1827dd
182778:	7269           	          moveq #105,%d1
18277a:	6320           	          blss 0x18279c
18277c:	4b65           	          .short 0x4b65
18277e:	7970           	          .short 0x7970
182780:	6164           	          bsrs 0x1827e6
182782:	204f           	          moveal %sp,%a0
182784:	7074           	          moveq #116,%d0
182786:	696f           	          bvss 0x1827f7
182788:	6e73           	          bgts 0x1827fd
18278a:	3a20           	          movew %a0@-,%d5
18278c:	8d8d           	          .short 0x8d8d
18278e:	892e 2020      	          orb %d4,%fp@(8224)
182792:	2052           	          moveal %a2@,%a0
182794:	6573           	          bcss 0x182809
182796:	746f           	          moveq #111,%d2
182798:	7265           	          moveq #101,%d1
18279a:	204d           	          moveal %a5,%a0
18279c:	656e           	          bcss 0x18280c
18279e:	7520           	          .short 0x7520
1827a0:	8d8d           	          .short 0x8d8d
1827a2:	8943           	          .short 0x8943
1827a4:	7572           	          .short 0x7572
1827a6:	7265           	          moveq #101,%d1
1827a8:	6e74           	          bgts 0x18281e
1827aa:	2042           	          moveal %d2,%a0
1827ac:	7574           	          .short 0x7574
1827ae:	746f           	          moveq #111,%d2
1827b0:	6e20           	          bgts 0x1827d2
1827b2:	5374 6174 6520 	          subqw #1,%a4@(0000000065203d20)@(0000000000000000)
1827b8:	3d20 
1827ba:	2480           	          movel %d0,%a2@
1827bc:	894d           	          .short 0x894d
1827be:	6f6e           	          bles 0x18282e
1827c0:	6974           	          bvss 0x182836
1827c2:	6f72           	          bles 0x182836
1827c4:	2054           	          moveal %a4@,%a0
1827c6:	6573           	          bcss 0x18283b
1827c8:	7420           	          moveq #32,%d2
1827ca:	5061           	          addqw #8,%a1@-
1827cc:	7474           	          moveq #116,%d2
1827ce:	6572           	          bcss 0x182842
1827d0:	6e73           	          bgts 0x182845
1827d2:	8d8d           	          .short 0x8d8d
1827d4:	8d89           	          .short 0x8d89
1827d6:	4e75           	          rts
1827d8:	6d65           	          blts 0x18283f
1827da:	7269           	          moveq #105,%d1
1827dc:	6320           	          blss 0x1827fe
1827de:	4b65           	          .short 0x4b65
1827e0:	7970           	          .short 0x7970
1827e2:	6164           	          bsrs 0x182848
1827e4:	204f           	          moveal %sp,%a0
1827e6:	7074           	          moveq #116,%d0
1827e8:	696f           	          bvss 0x182859
1827ea:	6e73           	          bgts 0x18285f
1827ec:	3a20           	          movew %a0@-,%d5
1827ee:	8d8d           	          .short 0x8d8d
1827f0:	892e 2020      	          orb %d4,%fp@(8224)
1827f4:	2052           	          moveal %a2@,%a0
1827f6:	6573           	          bcss 0x18286b
1827f8:	746f           	          moveq #111,%d2
1827fa:	7265           	          moveq #101,%d1
1827fc:	204d           	          moveal %a5,%a0
1827fe:	656e           	          bcss 0x18286e
182800:	7520           	          .short 0x7520
182802:	8d89           	          .short 0x8d89
182804:	3020           	          movew %a0@-,%d0
182806:	2020           	          movel %a0@-,%d0
182808:	5265           	          addqw #1,%a5@-
18280a:	7475           	          moveq #117,%d2
18280c:	726e           	          moveq #110,%d1
18280e:	2074 6f20 4d61 	          moveal %a4@(0000000000004d61,%d6:l:8),%a0
182814:	696e           	          bvss 0x182884
182816:	204d           	          moveal %a5,%a0
182818:	656e           	          bcss 0x182888
18281a:	7520           	          .short 0x7520
18281c:	8d89           	          .short 0x8d89
18281e:	3120           	          movew %a0@-,%a0@-
182820:	2020           	          movel %a0@-,%d0
182822:	4372           	          .short 0x4372
182824:	6f73           	          bles 0x182899
182826:	7368           	          .short 0x7368
182828:	6174           	          bsrs 0x18289e
18282a:	6368           	          blss 0x182894
18282c:	2050           	          moveal %a0@,%a0
18282e:	6174           	          bsrs 0x1828a4
182830:	7465           	          moveq #101,%d2
182832:	726e           	          moveq #110,%d1
182834:	2028 416c      	          movel %a0@(16748),%d0
182838:	6967           	          bvss 0x1828a1
18283a:	6e6d           	          bgts 0x1828a9
18283c:	656e           	          bcss 0x1828ac
18283e:	7429           	          moveq #41,%d2
182840:	8d89           	          .short 0x8d89
182842:	3220           	          movew %a0@-,%d1
182844:	2020           	          movel %a0@-,%d0
182846:	2725           	          movel %a5@-,%a3@-
182848:	2720           	          movel %a0@-,%a3@-
18284a:	5061           	          addqw #8,%a1@-
18284c:	7474           	          moveq #116,%d2
18284e:	6572           	          bcss 0x1828c2
182850:	6e20           	          bgts 0x182872
182852:	2846           	          moveal %d6,%a4
182854:	6f63           	          bles 0x1828b9
182856:	7573           	          .short 0x7573
182858:	2920           	          movel %a0@-,%a4@-
18285a:	8d89           	          .short 0x8d89
18285c:	3320           	          movew %a0@-,%a1@-
18285e:	2020           	          movel %a0@-,%d0
182860:	5768 6974      	          subqw #3,%a0@(26996)
182864:	6520           	          bcss 0x182886
182866:	5363           	          subqw #1,%a3@-
182868:	7265           	          moveq #101,%d1
18286a:	656e           	          bcss 0x1828da
18286c:	8d89           	          .short 0x8d89
18286e:	2c20           	          movel %a0@-,%d6
182870:	2020           	          movel %a0@-,%d0
182872:	546f 6767      	          addqw #2,%sp@(26471)
182876:	6c65           	          bges 0x1828dd
182878:	2053           	          moveal %a3@,%a0
18287a:	6372           	          blss 0x1828ee
18287c:	6565           	          bcss 0x1828e3
18287e:	6e80           	          bgts 0x182800
182880:	8944           	          .short 0x8944
182882:	6174           	          bsrs 0x1828f8
182884:	6120           	          bsrs 0x1828a6
182886:	5061           	          addqw #8,%a1@-
182888:	6420           	          bccs 0x1828aa
18288a:	5465           	          addqw #2,%a5@-
18288c:	7374           	          .short 0x7374
18288e:	7320           	          .short 0x7320
182890:	8d8d           	          .short 0x8d8d
182892:	8d89           	          .short 0x8d89
182894:	4e75           	          rts
182896:	6d65           	          blts 0x1828fd
182898:	7269           	          moveq #105,%d1
18289a:	6320           	          blss 0x1828bc
18289c:	4b65           	          .short 0x4b65
18289e:	7970           	          .short 0x7970
1828a0:	6164           	          bsrs 0x182906
1828a2:	204f           	          moveal %sp,%a0
1828a4:	7074           	          moveq #116,%d0
1828a6:	696f           	          bvss 0x182917
1828a8:	6e73           	          bgts 0x18291d
1828aa:	3a20           	          movew %a0@-,%d5
1828ac:	8d8d           	          .short 0x8d8d
1828ae:	892e 2020      	          orb %d4,%fp@(8224)
1828b2:	2052           	          moveal %a2@,%a0
1828b4:	6573           	          bcss 0x182929
1828b6:	746f           	          moveq #111,%d2
1828b8:	7265           	          moveq #101,%d1
1828ba:	204d           	          moveal %a5,%a0
1828bc:	656e           	          bcss 0x18292c
1828be:	7520           	          .short 0x7520
1828c0:	8d89           	          .short 0x8d89
1828c2:	3020           	          movew %a0@-,%d0
1828c4:	2020           	          movel %a0@-,%d0
1828c6:	5265           	          addqw #1,%a5@-
1828c8:	7475           	          moveq #117,%d2
1828ca:	726e           	          moveq #110,%d1
1828cc:	2074 6f20 4d61 	          moveal %a4@(0000000000004d61,%d6:l:8),%a0
1828d2:	696e           	          bvss 0x182942
1828d4:	204d           	          moveal %a5,%a0
1828d6:	656e           	          bcss 0x182946
1828d8:	7520           	          .short 0x7520
1828da:	8d89           	          .short 0x8d89
1828dc:	3120           	          movew %a0@-,%a0@-
1828de:	2020           	          movel %a0@-,%d0
1828e0:	4461           	          negw %a1@-
1828e2:	7461           	          moveq #97,%d2
1828e4:	2050           	          moveal %a0@,%a0
1828e6:	6164           	          bsrs 0x18294c
1828e8:	2055           	          moveal %a5@,%a0
1828ea:	5341           	          subqw #1,%d1
1828ec:	5254           	          addqw #1,%a4@
1828ee:	2054           	          moveal %a4@,%a0
1828f0:	6573           	          bcss 0x182965
1828f2:	7420           	          moveq #32,%d2
1828f4:	8d89           	          .short 0x8d89
1828f6:	3220           	          movew %a0@-,%d1
1828f8:	2020           	          movel %a0@-,%d0
1828fa:	4461           	          negw %a1@-
1828fc:	7461           	          moveq #97,%d2
1828fe:	2050           	          moveal %a0@,%a0
182900:	6164           	          bsrs 0x182966
182902:	2050           	          moveal %a0@,%a0
182904:	6f72           	          bles 0x182978
182906:	7420           	          moveq #32,%d2
182908:	4c6f           	          .short 0x4c6f
18290a:	6f70           	          bles 0x18297c
18290c:	2042           	          moveal %d2,%a0
18290e:	6163           	          bsrs 0x182973
182910:	6b20           	          bmis 0x182932
182912:	5465           	          addqw #2,%a5@-
182914:	7374           	          .short 0x7374
182916:	202d 2d20      	          movel %a5@(11552),%d0
18291a:	7265           	          moveq #101,%d1
18291c:	7175           	          .short 0x7175
18291e:	6972           	          bvss 0x182992
182920:	6573           	          bcss 0x182995
182922:	2073 7065      	          moveal %a3@(0000000000000065,%d7:w),%a0
182926:	6369           	          blss 0x182991
182928:	616c           	          bsrs 0x182996
18292a:	206c 6f6f      	          moveal %a4@(28527),%a0
18292e:	7020           	          moveq #32,%d0
182930:	6261           	          bhis 0x182993
182932:	636b           	          blss 0x18299f
182934:	2063           	          moveal %a3@-,%a0
182936:	6f6e           	          bles 0x1829a6
182938:	6e65           	          bgts 0x18299f
18293a:	6374           	          blss 0x1829b0
18293c:	6f72           	          bles 0x1829b0
18293e:	2061           	          moveal %a1@-,%a0
182940:	7420           	          moveq #32,%d2
182942:	4461           	          negw %a1@-
182944:	7461           	          moveq #97,%d2
182946:	2050           	          moveal %a0@,%a0
182948:	6164           	          bsrs 0x1829ae
18294a:	2050           	          moveal %a0@,%a0
18294c:	6f72           	          bles 0x1829c0
18294e:	7420           	          moveq #32,%d2
182950:	8d89           	          .short 0x8d89
182952:	3320           	          movew %a0@-,%a1@-
182954:	2020           	          movel %a0@-,%d0
182956:	4461           	          negw %a1@-
182958:	7461           	          moveq #97,%d2
18295a:	2050           	          moveal %a0@,%a0
18295c:	6164           	          bsrs 0x1829c2
18295e:	2052           	          moveal %a2@,%a0
182960:	6573           	          bcss 0x1829d5
182962:	6574           	          bcss 0x1829d8
182964:	8d89           	          .short 0x8d89
182966:	3420           	          movew %a0@-,%d2
182968:	2020           	          movel %a0@-,%d0
18296a:	4461           	          negw %a1@-
18296c:	7461           	          moveq #97,%d2
18296e:	2050           	          moveal %a0@,%a0
182970:	6164           	          bsrs 0x1829d6
182972:	2042           	          moveal %d2,%a0
182974:	7574           	          .short 0x7574
182976:	746f           	          moveq #111,%d2
182978:	6e20           	          bgts 0x18299a
18297a:	5465           	          addqw #2,%a5@-
18297c:	7374           	          .short 0x7374
18297e:	2080           	          movel %d0,%a0@
182980:	8944           	          .short 0x8944
182982:	6174           	          bsrs 0x1829f8
182984:	6120           	          bsrs 0x1829a6
182986:	5061           	          addqw #8,%a1@-
182988:	6420           	          bccs 0x1829aa
18298a:	4275 7474      	          clrw %a5@(0000000000000074,%d7:w:4)
18298e:	6f6e           	          bles 0x1829fe
182990:	2054           	          moveal %a4@,%a0
182992:	6573           	          bcss 0x182a07
182994:	7420           	          moveq #32,%d2
182996:	8d8d           	          .short 0x8d8d
182998:	8d89           	          .short 0x8d89
18299a:	4e75           	          rts
18299c:	6d65           	          blts 0x182a03
18299e:	7269           	          moveq #105,%d1
1829a0:	6320           	          blss 0x1829c2
1829a2:	4b65           	          .short 0x4b65
1829a4:	7970           	          .short 0x7970
1829a6:	6164           	          bsrs 0x182a0c
1829a8:	204f           	          moveal %sp,%a0
1829aa:	7074           	          moveq #116,%d0
1829ac:	696f           	          bvss 0x182a1d
1829ae:	6e73           	          bgts 0x182a23
1829b0:	3a20           	          movew %a0@-,%d5
1829b2:	8d8d           	          .short 0x8d8d
1829b4:	892e 2020      	          orb %d4,%fp@(8224)
1829b8:	2052           	          moveal %a2@,%a0
1829ba:	6573           	          bcss 0x182a2f
1829bc:	746f           	          moveq #111,%d2
1829be:	7265           	          moveq #101,%d1
1829c0:	204d           	          moveal %a5,%a0
1829c2:	656e           	          bcss 0x182a32
1829c4:	7520           	          .short 0x7520
1829c6:	8d8d           	          .short 0x8d8d
1829c8:	8943           	          .short 0x8943
1829ca:	7572           	          .short 0x7572
1829cc:	7265           	          moveq #101,%d1
1829ce:	6e74           	          bgts 0x182a44
1829d0:	2042           	          moveal %d2,%a0
1829d2:	7574           	          .short 0x7574
1829d4:	746f           	          moveq #111,%d2
1829d6:	6e20           	          bgts 0x1829f8
1829d8:	5374 6174 6520 	          subqw #1,%a4@(0000000065203d20)@(0000000000000000)
1829de:	3d20 
1829e0:	2480           	          movel %d0,%a2@
1829e2:	8946           	          .short 0x8946
1829e4:	6962           	          bvss 0x182a48
1829e6:	7265           	          moveq #101,%d1
1829e8:	2054           	          moveal %a4@,%a0
1829ea:	6573           	          bcss 0x182a5f
1829ec:	7473           	          moveq #115,%d2
1829ee:	8d8d           	          .short 0x8d8d
1829f0:	8d89           	          .short 0x8d89
1829f2:	4e75           	          rts
1829f4:	6d65           	          blts 0x182a5b
1829f6:	7269           	          moveq #105,%d1
1829f8:	6320           	          blss 0x182a1a
1829fa:	4b65           	          .short 0x4b65
1829fc:	7970           	          .short 0x7970
1829fe:	6164           	          bsrs 0x182a64
182a00:	204f           	          moveal %sp,%a0
182a02:	7074           	          moveq #116,%d0
182a04:	696f           	          bvss 0x182a75
182a06:	6e73           	          bgts 0x182a7b
182a08:	3a20           	          movew %a0@-,%d5
182a0a:	8d8d           	          .short 0x8d8d
182a0c:	892e 2020      	          orb %d4,%fp@(8224)
182a10:	2052           	          moveal %a2@,%a0
182a12:	6573           	          bcss 0x182a87
182a14:	746f           	          moveq #111,%d2
182a16:	7265           	          moveq #101,%d1
182a18:	204d           	          moveal %a5,%a0
182a1a:	656e           	          bcss 0x182a8a
182a1c:	7520           	          .short 0x7520
182a1e:	8d89           	          .short 0x8d89
182a20:	3020           	          movew %a0@-,%d0
182a22:	2020           	          movel %a0@-,%d0
182a24:	5265           	          addqw #1,%a5@-
182a26:	7475           	          moveq #117,%d2
182a28:	726e           	          moveq #110,%d1
182a2a:	2074 6f20 4d61 	          moveal %a4@(0000000000004d61,%d6:l:8),%a0
182a30:	696e           	          bvss 0x182aa0
182a32:	204d           	          moveal %a5,%a0
182a34:	656e           	          bcss 0x182aa4
182a36:	7520           	          .short 0x7520
182a38:	8d89           	          .short 0x8d89
182a3a:	3120           	          movew %a0@-,%a0@-
182a3c:	2020           	          movel %a0@-,%d0
182a3e:	456c           	          .short 0x456c
182a40:	6563           	          bcss 0x182aa5
182a42:	7472           	          moveq #114,%d2
182a44:	6963           	          bvss 0x182aa9
182a46:	616c           	          bsrs 0x182ab4
182a48:	204c           	          moveal %a4,%a0
182a4a:	6f6f           	          bles 0x182abb
182a4c:	7020           	          moveq #32,%d0
182a4e:	4261           	          clrw %a1@-
182a50:	636b           	          blss 0x182abd
182a52:	2077 6974 6820 	          moveal %sp@(0000000068204352)@(0000000000000000),%a0
182a58:	4352 
182a5a:	4320           	          chkl %a0@-,%d1
182a5c:	456e           	          .short 0x456e
182a5e:	6162           	          bsrs 0x182ac2
182a60:	6c65           	          bges 0x182ac7
182a62:	6420           	          bccs 0x182a84
182a64:	8d89           	          .short 0x8d89
182a66:	3220           	          movew %a0@-,%d1
182a68:	2020           	          movel %a0@-,%d0
182a6a:	456c           	          .short 0x456c
182a6c:	6563           	          bcss 0x182ad1
182a6e:	7472           	          moveq #114,%d2
182a70:	6963           	          bvss 0x182ad5
182a72:	616c           	          bsrs 0x182ae0
182a74:	204c           	          moveal %a4,%a0
182a76:	6f6f           	          bles 0x182ae7
182a78:	7020           	          moveq #32,%d0
182a7a:	4261           	          clrw %a1@-
182a7c:	636b           	          blss 0x182ae9
182a7e:	2077 6974 6820 	          moveal %sp@(0000000068204352)@(0000000000000000),%a0
182a84:	4352 
182a86:	4320           	          chkl %a0@-,%d1
182a88:	4469 7361      	          negw %a1@(29537)
182a8c:	626c           	          bhis 0x182afa
182a8e:	6564           	          bcss 0x182af4
182a90:	8d89           	          .short 0x8d89
182a92:	3320           	          movew %a0@-,%a1@-
182a94:	2020           	          movel %a0@-,%d0
182a96:	4f70           	          .short 0x4f70
182a98:	7469           	          moveq #105,%d2
182a9a:	6361           	          blss 0x182afd
182a9c:	6c20           	          bges 0x182abe
182a9e:	4c6f           	          .short 0x4c6f
182aa0:	6f70           	          bles 0x182b12
182aa2:	2042           	          moveal %d2,%a0
182aa4:	6163           	          bsrs 0x182b09
182aa6:	6b20           	          bmis 0x182ac8
182aa8:	7769           	          .short 0x7769
182aaa:	7468           	          moveq #104,%d2
182aac:	2043           	          moveal %d3,%a0
182aae:	5243           	          addqw #1,%d3
182ab0:	2045           	          moveal %d5,%a0
182ab2:	6e61           	          bgts 0x182b15
182ab4:	626c           	          bhis 0x182b22
182ab6:	6564           	          bcss 0x182b1c
182ab8:	202d 2d20      	          movel %a5@(11552),%d0
182abc:	7265           	          moveq #101,%d1
182abe:	7175           	          .short 0x7175
182ac0:	6972           	          bvss 0x182b34
182ac2:	6573           	          bcss 0x182b37
182ac4:	2073 7065      	          moveal %a3@(0000000000000065,%d7:w),%a0
182ac8:	6369           	          blss 0x182b33
182aca:	616c           	          bsrs 0x182b38
182acc:	206c 6f6f      	          moveal %a4@(28527),%a0
182ad0:	7020           	          moveq #32,%d0
182ad2:	6261           	          bhis 0x182b35
182ad4:	636b           	          blss 0x182b41
182ad6:	2063           	          moveal %a3@-,%a0
182ad8:	6f6e           	          bles 0x182b48
182ada:	6e65           	          bgts 0x182b41
182adc:	6374           	          blss 0x182b52
182ade:	6f72           	          bles 0x182b52
182ae0:	206f 6e20      	          moveal %sp@(28192),%a0
182ae4:	464f           	          .short 0x464f
182ae6:	5452           	          addqw #2,%a2@
182ae8:	8d89           	          .short 0x8d89
182aea:	3420           	          movew %a0@-,%d2
182aec:	2020           	          movel %a0@-,%d0
182aee:	4f70           	          .short 0x4f70
182af0:	7469           	          moveq #105,%d2
182af2:	6361           	          blss 0x182b55
182af4:	6c20           	          bges 0x182b16
182af6:	4c6f           	          .short 0x4c6f
182af8:	6f70           	          bles 0x182b6a
182afa:	2042           	          moveal %d2,%a0
182afc:	6163           	          bsrs 0x182b61
182afe:	6b20           	          bmis 0x182b20
182b00:	7769           	          .short 0x7769
182b02:	7468           	          moveq #104,%d2
182b04:	2043           	          moveal %d3,%a0
182b06:	5243           	          addqw #1,%d3
182b08:	2044           	          moveal %d4,%a0
182b0a:	6973           	          bvss 0x182b7f
182b0c:	6162           	          bsrs 0x182b70
182b0e:	6c65           	          bges 0x182b75
182b10:	6420           	          bccs 0x182b32
182b12:	202d 2d20      	          movel %a5@(11552),%d0
182b16:	7265           	          moveq #101,%d1
182b18:	7175           	          .short 0x7175
182b1a:	6972           	          bvss 0x182b8e
182b1c:	6573           	          bcss 0x182b91
182b1e:	2073 7065      	          moveal %a3@(0000000000000065,%d7:w),%a0
182b22:	6369           	          blss 0x182b8d
182b24:	616c           	          bsrs 0x182b92
182b26:	206c 6f6f      	          moveal %a4@(28527),%a0
182b2a:	7020           	          moveq #32,%d0
182b2c:	6261           	          bhis 0x182b8f
182b2e:	636b           	          blss 0x182b9b
182b30:	2063           	          moveal %a3@-,%a0
182b32:	6f6e           	          bles 0x182ba2
182b34:	6e65           	          bgts 0x182b9b
182b36:	6374           	          blss 0x182bac
182b38:	6f72           	          bles 0x182bac
182b3a:	206f 6e20      	          moveal %sp@(28192),%a0
182b3e:	464f           	          .short 0x464f
182b40:	5452           	          addqw #2,%a2@
182b42:	2080           	          movel %d0,%a0@
182b44:	8942           	          .short 0x8942
182b46:	4241           	          clrw %d1
182b48:	2054           	          moveal %a4@,%a0
182b4a:	6573           	          bcss 0x182bbf
182b4c:	7473           	          moveq #115,%d2
182b4e:	8d89           	          .short 0x8d89
182b50:	8942           	          .short 0x8942
182b52:	4241           	          clrw %d1
182b54:	2056           	          moveal %fp@,%a0
182b56:	6572           	          bcss 0x182bca
182b58:	7369           	          .short 0x7369
182b5a:	6f6e           	          bles 0x182bca
182b5c:	2080           	          movel %d0,%a0@
182b5e:	8d8d           	          .short 0x8d8d
182b60:	8d89           	          .short 0x8d89
182b62:	4e75           	          rts
182b64:	6d65           	          blts 0x182bcb
182b66:	7269           	          moveq #105,%d1
182b68:	6320           	          blss 0x182b8a
182b6a:	4b65           	          .short 0x4b65
182b6c:	7970           	          .short 0x7970
182b6e:	6164           	          bsrs 0x182bd4
182b70:	204f           	          moveal %sp,%a0
182b72:	7074           	          moveq #116,%d0
182b74:	696f           	          bvss 0x182be5
182b76:	6e73           	          bgts 0x182beb
182b78:	3a20           	          movew %a0@-,%d5
182b7a:	8d8d           	          .short 0x8d8d
182b7c:	892e 2020      	          orb %d4,%fp@(8224)
182b80:	2052           	          moveal %a2@,%a0
182b82:	6573           	          bcss 0x182bf7
182b84:	746f           	          moveq #111,%d2
182b86:	7265           	          moveq #101,%d1
182b88:	204d           	          moveal %a5,%a0
182b8a:	656e           	          bcss 0x182bfa
182b8c:	7520           	          .short 0x7520
182b8e:	8d89           	          .short 0x8d89
182b90:	3020           	          movew %a0@-,%d0
182b92:	2020           	          movel %a0@-,%d0
182b94:	5265           	          addqw #1,%a5@-
182b96:	7475           	          moveq #117,%d2
182b98:	726e           	          moveq #110,%d1
182b9a:	2074 6f20 4d61 	          moveal %a4@(0000000000004d61,%d6:l:8),%a0
182ba0:	696e           	          bvss 0x182c10
182ba2:	204d           	          moveal %a5,%a0
182ba4:	656e           	          bcss 0x182c14
182ba6:	7520           	          .short 0x7520
182ba8:	8d89           	          .short 0x8d89
182baa:	3120           	          movew %a0@-,%a0@-
182bac:	2020           	          movel %a0@-,%d0
182bae:	4242           	          clrw %d2
182bb0:	4120           	          chkl %a0@-,%d0
182bb2:	5363           	          subqw #1,%a3@-
182bb4:	7261           	          moveq #97,%d1
182bb6:	7463           	          moveq #99,%d2
182bb8:	6870           	          bvcs 0x182c2a
182bba:	6164           	          bsrs 0x182c20
182bbc:	204d           	          moveal %a5,%a0
182bbe:	656d           	          bcss 0x182c2d
182bc0:	6f72           	          bles 0x182c34
182bc2:	7920           	          .short 0x7920
182bc4:	5465           	          addqw #2,%a5@-
182bc6:	7374           	          .short 0x7374
182bc8:	8d89           	          .short 0x8d89
182bca:	3220           	          movew %a0@-,%d1
182bcc:	2020           	          movel %a0@-,%d0
182bce:	4242           	          clrw %d2
182bd0:	4120           	          chkl %a0@-,%d0
182bd2:	436f           	          .short 0x436f
182bd4:	7079           	          moveq #121,%d0
182bd6:	6172           	          bsrs 0x182c4a
182bd8:	6561           	          bcss 0x182c3b
182bda:	2054           	          moveal %a4@,%a0
182bdc:	6573           	          bcss 0x182c51
182bde:	7480           	          moveq #-128,%d2
182be0:	8d8d           	          .short 0x8d8d
182be2:	8954           	          orw %d4,%a4@
182be4:	6573           	          bcss 0x182c59
182be6:	7420           	          moveq #32,%d2
182be8:	2380
182bea: 2e2e
182bec:	2e70 6173 7365 	          moveal %a0@(0000000073656480)@(000000002e2e2e66),%sp
182bf2:	6480 2e2e 2e66 
182bf8:	6169           	          bsrs 0x182c63
182bfa:	6c65           	          bges 0x182c61
182bfc:	6480           	          bccs 0x182b7e
182bfe:	2e2e 2e6e      	          movel %fp@(11886),%d7
182c02:	6f74           	          bles 0x182c78
182c04:	2065           	          moveal %a5@-,%a0
182c06:	7865           	          moveq #101,%d4
182c08:	6375           	          blss 0x182c7f
182c0a:	7465           	          moveq #101,%d2
182c0c:	6420           	          bccs 0x182c2e
182c0e:	2d2d 2042      	          movel %a5@(8258),%fp@-
182c12:	4241           	          clrw %d1
182c14:	206e 6f74      	          moveal %fp@(28532),%a0
182c18:	2070 7265      	          moveal %a0@(0000000000000065,%d7:w:2),%a0
182c1c:	7365           	          .short 0x7365
182c1e:	6e74           	          bgts 0x182c94
182c20:	2080           	          movel %d0,%a0@
182c22:	2e2e 2e74      	          movel %fp@(11892),%d7
182c26:	696d           	          bvss 0x182c95
182c28:	6564           	          bcss 0x182c8e
182c2a:	206f 7574      	          moveal %sp@(30068),%a0
182c2e:	2080           	          movel %d0,%a0@
182c30:	8d8d           	          .short 0x8d8d
182c32:	894b           	          .short 0x894b
182c34:	6579           	          bcss 0x182caf
182c36:	626f           	          bhis 0x182ca7
182c38:	6172           	          bsrs 0x182cac
182c3a:	6420           	          bccs 0x182c5c
182c3c:	4944           	          .short 0x4944
182c3e:	2028 6669      	          movel %a0@(26217),%d0
182c42:	726d           	          moveq #109,%d1
182c44:	7761           	          .short 0x7761
182c46:	7265           	          moveq #101,%d1
182c48:	2920           	          movel %a0@-,%a4@-
182c4a:	3d20           	          movew %a0@-,%fp@-
182c4c:	2480           	          movel %d0,%a2@
182c4e:	8d89           	          .short 0x8d89
182c50:	4b65           	          .short 0x4b65
182c52:	7962           	          .short 0x7962
182c54:	6f61           	          bles 0x182cb7
182c56:	7264           	          moveq #100,%d1
182c58:	2049           	          moveal %a1,%a0
182c5a:	4420           	          negb %a0@-
182c5c:	2868 6172      	          moveal %a0@(24946),%a4
182c60:	6477           	          bccs 0x182cd9
182c62:	6172           	          bsrs 0x182cd6
182c64:	6529           	          bcss 0x182c8f
182c66:	203d           	          .short 0x203d
182c68:	2020           	          movel %a0@-,%d0
182c6a:	2480           	          movel %d0,%a2@
182c6c:	8d89           	          .short 0x8d89
182c6e:	4572           	          .short 0x4572
182c70:	726f           	          moveq #111,%d1
182c72:	7220           	          moveq #32,%d1
182c74:	3d20           	          movew %a0@-,%fp@-
182c76:	2480           	          movel %d0,%a2@
182c78:	8d89           	          .short 0x8d89
182c7a:	4b65           	          .short 0x4b65
182c7c:	7963           	          .short 0x7963
182c7e:	6f64           	          bles 0x182ce4
182c80:	6520           	          bcss 0x182ca2
182c82:	3d20           	          movew %a0@-,%fp@-
182c84:	2480           	          movel %d0,%a2@
182c86:	8d8d           	          .short 0x8d8d
182c88:	8944           	          .short 0x8944
182c8a:	6174           	          bsrs 0x182d00
182c8c:	6120           	          bsrs 0x182cae
182c8e:	5061           	          addqw #8,%a1@-
182c90:	6420           	          bccs 0x182cb2
182c92:	7265           	          moveq #101,%d1
182c94:	7365           	          .short 0x7365
182c96:	7480           	          moveq #-128,%d2

;print string
182c98:	48e7 4000      	          moveml %d1,%sp@-
182c9c:	1218           	          moveb %a0@+,%d1
182c9e:	0c01 0080      	          cmpib #0x80,%d1 ;end of string
182ca2:	6706           	          beqs 0x182caa
182ca4:	6100 0072      	          bsrw 0x182d18 ;print character
182ca8:	60f2           	          bras 0x182c9c
182caa:	4cdf 0002      	          moveml %sp@+,%d1
182cae:	4e75           	          rts

182cb0:	4842           	          swap %d2
182cb2:	363c 0001      	          movew #1,%d3
182cb6:	611e           	          bsrs 0x182cd6
182cb8:	123c 002e      	          moveb #46,%d1
182cbc:	6100 005a      	          bsrw 0x182d18 ;print character
182cc0:	363c 0001      	          movew #1,%d3
182cc4:	6010           	          bras 0x182cd6
182cc6:	4842           	          swap %d2
182cc8:	e19a           	          roll #8,%d2
182cca:	363c 0001      	          movew #1,%d3
182cce:	6006           	          bras 0x182cd6
182cd0:	e89a           	          rorl #4,%d2
182cd2:	363c 0000      	          movew #0,%d3
182cd6:	e99a           	          roll #4,%d2
182cd8:	1202           	          moveb %d2,%d1
182cda:	0201 000f      	          andib #15,%d1
182cde:	0601 0030      	          addib #48,%d1
182ce2:	0c01 0039      	          cmpib #57,%d1
182ce6:	6f02           	          bles 0x182cea
182ce8:	5e01           	          addqb #7,%d1
182cea:	6100 002c      	          bsrw 0x182d18 ;print character
182cee:	51cb ffe6      	          dbf %d3,0x182cd6
182cf2:	4e75           	          rts

182cf4:	48e7 7c00      	          moveml %d1-%d5,%sp@-
182cf8:	3839 0001 ffd0 	          movew 0x1ffd0,%d4  ;cursor column
182cfe:	3a39 0001 ffd2 	          movew 0x1ffd2,%d5  ;cursor line
182d04:	61c0           	          bsrs 0x182cc6
182d06:	33c4 0001 ffd0 	          movew %d4,0x1ffd0
182d0c:	33c5 0001 ffd2 	          movew %d5,0x1ffd2
182d12:	4cdf 003e      	          moveml %sp@+,%d1-%d5
182d16:	4e75           	          rts

;print character in d1
182d18:	48e7 60c0      	          moveml %d1-%d2/%a0-%a1,%sp@-
182d1c:	0c01 0089      	          cmpib #0x89,%d1  ;tab?
182d20:	6612           	          bnes 0x182d34
182d22:	5079 0001 ffd0 	          addqw #8,0x1ffd0 ;tab
182d28:	0279 fff8 0001 ffd0       andiw #-8,0x1ffd0
182d30:	6000 0072      	          braw 0x182da4
182d34:	0c01 008d      	          cmpib #0x8d,%d1 ;newline?
182d38:	6618           	          bnes 0x182d52
182d3a:	4279 0001 ffd0 	          clrw 0x1ffd0  ;cursor column
182d40:	0c79 0038 0001 ffd2       cmpiw #56,0x1ffd2 ;cursor line
182d48:	6c5a           	          bges 0x182da4
182d4a:	5279 0001 ffd2 	          addqw #1,0x1ffd2
182d50:	6052           	          bras 0x182da4
182d52:	0241 007f      	          andiw #127,%d1
182d56:	0441 0020      	          subiw #32,%d1
182d5a:	6d48           	          blts 0x182da4
182d5c:	227c 0018 1ee2 	          moveal #0x181ee2,%a1 ;font data
182d62:	d2c1           	          addaw %d1,%a1
182d64:	207c 0010 0000 	          moveal #1048576,%a0
182d6a:	3239 0001 ffd0 	          movew 0x1ffd0,%d1 ;cursor column
182d70:	0a41 0001      	          eoriw #1,%d1
182d74:	d0c1           	          addaw %d1,%a0
182d76:	3239 0001 ffd2 	          movew 0x1ffd2,%d1 ;cursor line
182d7c:	c3fc 07f8      	          mulsw #2040,%d1
182d80:	d1c1           	          addal %d1,%a0
182d82:	323c 000e      	          movew #14,%d1
182d86:	1411           	          moveb %a1@,%d2
182d88:	0a02 00ff      	          eorib #-1,%d2
182d8c:	1082           	          moveb %d2,%a0@
182d8e:	d3fc 0000 0060 	          addal #96,%a1
182d94:	d1fc 0000 0088 	          addal #136,%a0
182d9a:	51c9 ffea      	          dbf %d1,0x182d86
182d9e:	5279 0001 ffd0 	          addqw #1,0x1ffd0
182da4:	4cdf 0306      	          moveml %sp@+,%d1-%d2/%a0-%a1
182da8:	4e75           	          rts

;Main menu
182daa:	00182fba
182dae:	00182f88
182db2:	00182fae
182db6:	00182f88
182dba:	00182fe4
182dbe:	0018303c
182dc2:	00183116
182dc6:	001833f4
182dca:	00183462
182dce:	0018348c
;
182dd2:	00182e92
182dd6:	00182f88
182dda:	00182fd6
182dde:	00182f88
182de2:	001814c8
182de6:	00181516
182dea:	001815b0
182dee:	0018174a
;
182df2:	00182e92
182df6:	00182f88
182dfa:	00183000
182dfe:	00182f88
182e02:	00181640
182e06:	00181a6a
182e0a:	0018300e
;
182e0e:	00182e92
182e12:	00182f88
182e16:	00183132
182e1a:	00182f88
182e1e:	001831d2 ;crosshatch pattern
182e22:	0018338a ;percent focus pattern
182e26:	00183182 ;white screen
182e2a:	00182f88
182e2e:	00182f88
182e32:	00182f88
182e36:	001831b0 ;toggle screen

;tablet (data pad) tests
182e3a:	00182e92
182e3e:	00182f88
182e42:	00183410
182e46:	00182f88
182e4a:	0018165c
182e4e:	00181694
182e52:	00181bf0
182e56:	0018341e

;fibre tests
182e5a:	00182e92
182e5e:	00182f88
182e62:	0018347e
182e66:	00182f88
182e6a:	001817f2 ;no crc, electrical loopback
182e6e:	00181812 ;crc, electrical loopback
182e72:	00181832 ;no crc, optical loopback
182e76:	00181850 ;crc, optical loopback

;bba tests
182e7a:	00182e92
182e7e:	00182f88
182e82:	001834aa
182e86:	00182f88
182e8a:	00181916 ;bba scratchpad test
182e8e:	0018195e ;bba command test

;enter maintenance menu
182e92:	2e7c 0001 ffc0 	          moveal #0x1ffc0,%sp
182e98:	46fc 2000      	          movew #0x2000,%sr
182e9c:	13fc 000f 0080 0081       moveb #15,0x800081 ;LED ....G
182ea4:	6100 d1e2      	          bsrw 0x180088
182ea8:	08c0 0016      	          bset #22,%d0
182eac:	4239 0001 fff9 	          clrb 0x1fff9
182eb2:	6100 00fa      	          bsrw 0x182fae ;Maintenance main menu
182eb6:	1039 0001 fff9 	          moveb 0x1fff9,%d0 ;key
182ebc:	67f8           	          beqs 0x182eb6
182ebe:	227c 0018 2daa 	          moveal #0x182daa,%a1
182ec4:	323c 0009      	          movew #9,%d1
182ec8:	6100 0004      	          bsrw 0x182ece
182ecc:	60e8           	          bras 0x182eb6

;select menu item
;key in d0, table address in a1, length in d1
182ece:	4239 0001 fff9 	          clrb 0x1fff9
182ed4:	0240 00ff      	          andiw #255,%d0
182ed8:	0440 0092      	          subiw #146,%d0 ;Keypad 0
182edc:	6d00 00a8      	          bltw 0x182f86
182ee0:	b041           	          cmpw %d1,%d0
182ee2:	6e00 00a2      	          bgtw 0x182f86
182ee6:	0880 0014      	          bclr #20,%d0
182eea:	0880 0015      	          bclr #21,%d0
182eee:	0880 001a      	          bclr #26,%d0
182ef2:	0880 001b      	          bclr #27,%d0
182ef6:	0880 0013      	          bclr #19,%d0
182efa:	1400           	          moveb %d0,%d2
182efc:	5702           	          subqb #3,%d2
182efe:	e540           	          aslw #2,%d0
182f00:	2271 0000      	          moveal %a1@(%d0:w),%a1
182f04:	4240           	          clrw %d0
182f06:	4e91           	          jsr %a1@
182f08:	4239 0001 fff9 	          clrb 0x1fff9
182f0e:	13fc 0004 0080 0007       moveb #4,0x800007
182f16:	13fc 0004 0080 0027       moveb #4,0x800027
182f1e:	46fc 2000      	          movew #0x2000,%sr
182f22:	0800 0015      	          btst #21,%d0
182f26:	665e           	          bnes 0x182f86
182f28:	0800 001d      	          btst #29,%d0
182f2c:	6708           	          beqs 0x182f36
182f2e:	6100 d158      	          bsrw 0x180088
182f32:	0880 001d      	          bclr #29,%d0
182f36:	207c 0018 2be0 	          moveal #1584096,%a0 ;"Test #"
182f3c:	6100 fd5a      	          bsrw 0x182c98 ;print string
182f40:	6100 fd8e      	          bsrw 0x182cd0 ;print digit
182f44:	4a40           	          tstw %d0 ;test failed?
182f46:	671e           	          beqs 0x182f66
182f48:	6100 d14e      	          bsrw 0x180098
182f4c:	08c0 001d      	          bset #29,%d0
182f50:	0800 001b      	          btst #27,%d0 ;timed out?
182f54:	6708           	          beqs 0x182f5e
182f56:	207c 0018 2c22 	          moveal #1584162,%a0 ;"timed out"
182f5c:	6024           	          bras 0x182f82
182f5e:	207c 0018 2bf4 	          moveal #1584116,%a0 ;"failed"
182f64:	601c           	          bras 0x182f82
182f66:	13fc 000f 0080 0081       moveb #15,0x800081 ;LED ....G
182f6e:	0800 001a      	          btst #26,%d0 ;not exec?
182f72:	6608           	          bnes 0x182f7c
182f74:	207c 0018 2bea 	          moveal #0x182bea,%a0 ;"passed"
182f7a:	6006           	          bras 0x182f82
182f7c:	207c 0018 2bfe 	          moveal #0x182bfe,%a0 ;"not executed"
182f82:	6100 fd14      	          bsrw 0x182c98 ;print string
182f86:	4e75           	          rts

182f88:	08c0 0015      	          bset #21,%d0
182f8c:	4e75           	          rts

;maint mode title
182f8e:	48e7 7000      	          moveml %d1-%d3,%sp@-
182f92:	6100 01ee      	          bsrw 0x183182 ;white screen
182f96:	207c 0018 2482 	          moveal #x182482,%a0 ;"VS100 Maintenance Mode"
182f9c:	6100 fcfa      	          bsrw 0x182c98 ;print string
182fa0:	343c 0500      	          movew #1280,%d2
182fa4:	6100 fd0a      	          bsrw 0x182cb0
182fa8:	4cdf 000e      	          moveml %sp@+,%d1-%d3
182fac:	4e75           	          rts

182fae:	61de           	          bsrs 0x182f8e ;display maint title
182fb0:	207c 0018 24d2 	          moveal #1582290,%a0 ;"Main Menu"
182fb6:	6000 fce0      	          braw 0x182c98 ;print string

182fba:	6100 001a      	          bsrw 0x182fd6
182fbe:	1039 0001 fff9 	          moveb 0x1fff9,%d0
182fc4:	67f8           	          beqs 0x182fbe
182fc6:	227c 0018 2dd2 	          moveal #1584594,%a1
182fcc:	323c 0007      	          movew #7,%d1
182fd0:	6100 fefc      	          bsrw 0x182ece
182fd4:	60e8           	          bras 0x182fbe

182fd6:	6100 ffb6      	          bsrw 0x182f8e
182fda:	207c 0018 2592 	          moveal #1582482,%a0 ;"DPM Tests"
182fe0:	6000 fcb6      	          braw 0x182c98 ;print string

182fe4:	6100 001a      	          bsrw 0x183000
182fe8:	1039 0001 fff9 	          moveb 0x1fff9,%d0
182fee:	67f8           	          beqs 0x182fe8
182ff0:	227c 0018 2df2 	          moveal #1584626,%a1
182ff6:	323c 0006      	          movew #6,%d1
182ffa:	6100 fed2      	          bsrw 0x182ece
182ffe:	60e8           	          bras 0x182fe8

183000:	6100 ff8c      	          bsrw 0x182f8e
183004:	207c 0018 265a 	          moveal #1582682,%a0 ;"Keyboard Tests"
18300a:	6000 fc8c      	          braw 0x182c98 ;print string

18300e:	6100 ff7e      	          bsrw 0x182f8e
183012:	207c 0018 2702 	          moveal #1582850,%a0 ;"Keboard Button Test"
183018:	6100 fc7e      	          bsrw 0x182c98 ;print string
18301c:	1439 0001 fff9 	          moveb 0x1fff9,%d2
183022:	67f8           	          beqs 0x18301c
183024:	4239 0001 fff9 	          clrb 0x1fff9
18302a:	0c02 0094      	          cmpib #-108,%d2 ;Keypad .
18302e:	6606           	          bnes 0x183036
183030:	4a9f           	          tstl %sp@+
183032:	6000 ffb0      	          braw 0x182fe4
183036:	6100 fcbc      	          bsrw 0x182cf4
18303a:	60e0           	          bras 0x18301c

18303c:	6100 ff50      	          bsrw 0x182f8e ;title
183040:	207c 0018 2764 	          moveal #1582948,%a0 ;"Mouse Test"
183046:	6100 fc50      	          bsrw 0x182c98 ;print string
18304a:	207c 0010 0000 	          moveal #1048576,%a0
183050:	d1fc 0000 0882 	          addal #2178,%a0
183056:	6100 007a      	          bsrw 0x1830d2
18305a:	207c 0010 0000 	          moveal #1048576,%a0
183060:	d1fc 0000 08fe 	          addal #2302,%a0
183066:	6100 006a      	          bsrw 0x1830d2
18306a:	207c 0011 cb00 	          moveal #1166080,%a0
183070:	91fc 0000 29f8 	          subal #10744,%a0
183076:	91fc 0000 000a 	          subal #10,%a0
18307c:	6100 0054      	          bsrw 0x1830d2
183080:	207c 0011 cb00 	          moveal #1166080,%a0
183086:	91fc 0000 2a7e 	          subal #10878,%a0
18308c:	6100 0044      	          bsrw 0x1830d2
183090:	4279 0000 00c0 	          clrw 0xc0
183096:	4279 0000 00c2 	          clrw 0xc2
18309c:	4279 0000 00c8 	          clrw 0xc8
1830a2:	4279 0000 00ca 	          clrw 0xca
1830a8:	6100 d1c6      	          bsrw 0x180270
1830ac:	1039 0001 fff9 	          moveb 0x1fff9,%d0
1830b2:	670e           	          beqs 0x1830c2
1830b4:	4239 0001 fff9 	          clrb 0x1fff9
1830ba:	0c00 0094      	          cmpib #0x94,%d0 ;Keypad .
1830be:	6700 fdd2      	          beqw 0x182e92 ;enter maint menu
1830c2:	1439 0001 fff8 	          moveb 0x1fff8,%d2
1830c8:	6100 fc2a      	          bsrw 0x182cf4
1830cc:	6100 d112      	          bsrw 0x1801e0 ;mouse
1830d0:	60da           	          bras 0x1830ac
1830d2:	48e7 7000      	          moveml %d1-%d3,%sp@-
1830d6:	4241           	          clrw %d1
1830d8:	343c 0003      	          movew #3,%d2
1830dc:	30c1           	          movew %d1,%a0@+
1830de:	51ca fffc      	          dbf %d2,0x1830dc
1830e2:	d1fc 0000 0080 	          addal #128,%a0
1830e8:	323c fffe      	          movew #-2,%d1
1830ec:	343c 7fff      	          movew #32767,%d2
1830f0:	363c 003d      	          movew #61,%d3
1830f4:	c358           	          andw %d1,%a0@+
1830f6:	4a98           	          tstl %a0@+
1830f8:	c558           	          andw %d2,%a0@+
1830fa:	d1fc 0000 0080 	          addal #128,%a0
183100:	51cb fff2      	          dbf %d3,0x1830f4
183104:	4241           	          clrw %d1
183106:	343c 0003      	          movew #3,%d2
18310a:	30c1           	          movew %d1,%a0@+
18310c:	51ca fffc      	          dbf %d2,0x18310a
183110:	4cdf 000e      	          moveml %sp@+,%d1-%d3
183114:	4e75           	          rts

183116:	6100 001a      	          bsrw 0x183132
18311a:	1039 0001 fff9 	          moveb 0x1fff9,%d0
183120:	67f8           	          beqs 0x18311a
183122:	227c 0018 2e0e 	          moveal #1584654,%a1
183128:	323c 000a      	          movew #10,%d1
18312c:	6100 fda0      	          bsrw 0x182ece
183130:	60e8           	          bras 0x18311a

183132:	6100 fe5a      	          bsrw 0x182f8e
183136:	207c 0018 27bc 	          moveal #1583036,%a0 ;"Monitor Test Patterns"
18313c:	6000 fb5a      	          braw 0x182c98 ;print string

;"Gray" screen.
183140:	48e7 7e80      	          moveml %d1-%d6/%a0,%sp@-
183144:	323c aaaa      	          movew #0xAAAA,%d1
183148:	343c 5555      	          movew #0x5555,%d2
18314c:	363c aaaa      	          movew #0xAAAA,%d3
183150:	383c 5555      	          movew #0x5555,%d4
183154:	207c 0010 0000 	          moveal #0x100000,%a0
18315a:	3a3c 035f      	          movew #863,%d5
18315e:	3c3c 0021      	          movew #33,%d6
183162:	30c1           	          movew %d1,%a0@+
183164:	30c1           	          movew %d1,%a0@+
183166:	51ce fffa      	          dbf %d6,0x183162
18316a:	c541           	          exg %d2,%d1
18316c:	c742           	          exg %d3,%d2
18316e:	c943           	          exg %d4,%d3
183170:	51cd ffec      	          dbf %d5,0x18315e ;next line
183174:	4cdf 017e      	          moveml %sp@+,%d1-%d6/%a0
183178:	4e75           	          rts

;black screen
18317a:	48e7 6080      	          moveml %d1-%d2/%a0,%sp@-
18317e:	4281           	          clrl %d1
183180:	6006           	          bras 0x183188

;white screen
183182:	48e7 6080      	          moveml %d1-%d2/%a0,%sp@-
183186:	72ff           	          moveq #-1,%d1
183188:	08c0 0015      	          bset #21,%d0
18318c:	4279 0001 ffd0 	          clrw 0x1ffd0 ;cursor column
183192:	4279 0001 ffd2 	          clrw 0x1ffd2 ;cursor line
183198:	207c 0010 0000 	          moveal #0x100000,%a0
18319e:	343c 395f      	          movew #14687,%d2
1831a2:	20c1           	          movel %d1,%a0@+
1831a4:	20c1           	          movel %d1,%a0@+
1831a6:	51ca fffa      	          dbf %d2,0x1831a2
1831aa:	4cdf 0106      	          moveml %sp@+,%d1-%d2/%a0
1831ae:	4e75           	          rts

;toggle screen
1831b0:	48e7 6080      	          moveml %d1-%d2/%a0,%sp@-
1831b4:	08c0 0015      	          bset #21,%d0
1831b8:	72ff           	          moveq #-1,%d1
1831ba:	207c 0010 0000 	          moveal #0x100000,%a0
1831c0:	343c 395f      	          movew #14687,%d2
1831c4:	b398           	          eorl %d1,%a0@+
1831c6:	b398           	          eorl %d1,%a0@+
1831c8:	51ca fffa      	          dbf %d2,0x1831c4
1831cc:	4cdf 0106      	          moveml %sp@+,%d1-%d2/%a0
1831d0:	4e75           	          rts

;crosshatch pattern
1831d2:	48e7 7f80      	          moveml %d1-%a0,%sp@-
1831d6:	6100 ffa2      	          bsrw 0x18317a ;black screen
1831da:	323c 0001      	          movew #1,%d1
1831de:	343c 8000      	          movew #-32768,%d2
1831e2:	207c 0010 0000 	          moveal #1048576,%a0
1831e8:	363c 035f      	          movew #863,%d3
1831ec:	3081           	          movew %d1,%a0@
1831ee:	d1fc 0000 0086 	          addal #134,%a0
1831f4:	30c2           	          movew %d2,%a0@+
1831f6:	51cb fff4      	          dbf %d3,0x1831ec
1831fa:	323c ffff      	          movew #-1,%d1
1831fe:	207c 0010 0000 	          moveal #1048576,%a0
183204:	343c 0021      	          movew #33,%d2
183208:	30c1           	          movew %d1,%a0@+
18320a:	30c1           	          movew %d1,%a0@+
18320c:	51ca fffa      	          dbf %d2,0x183208
183210:	207c 0011 ca78 	          moveal #1165944,%a0
183216:	343c 0021      	          movew #33,%d2
18321a:	30c1           	          movew %d1,%a0@+
18321c:	30c1           	          movew %d1,%a0@+
18321e:	51ca fffa      	          dbf %d2,0x18321a
183222:	323c 0800      	          movew #2048,%d1
183226:	343c 8000      	          movew #-32768,%d2
18322a:	363c 0000      	          movew #0,%d3
18322e:	383c 0008      	          movew #8,%d4
183232:	3a3c 0080      	          movew #128,%d5
183236:	207c 0010 1654 	          moveal #1054292,%a0
18323c:	3c3c 030a      	          movew #778,%d6
183240:	3e3c 000b      	          movew #11,%d7
183244:	30c1           	          movew %d1,%a0@+
183246:	30c2           	          movew %d2,%a0@+
183248:	30c3           	          movew %d3,%a0@+
18324a:	30c4           	          movew %d4,%a0@+
18324c:	30c5           	          movew %d5,%a0@+
18324e:	51cf fff4      	          dbf %d7,0x183244
183252:	30c1           	          movew %d1,%a0@+
183254:	30c2           	          movew %d2,%a0@+
183256:	30c3           	          movew %d3,%a0@+
183258:	30c4           	          movew %d4,%a0@+
18325a:	d1fc 0000 0008 	          addal #8,%a0
183260:	51ce ffde      	          dbf %d6,0x183240
183264:	207c 0010 15cc 	          moveal #1054156,%a0
18326a:	323c f800      	          movew #-2048,%d1
18326e:	343c ffff      	          movew #-1,%d2
183272:	363c 000f      	          movew #15,%d3
183276:	383c 0027      	          movew #39,%d4
18327a:	30c1           	          movew %d1,%a0@+
18327c:	3a3c 001e      	          movew #30,%d5
183280:	30c2           	          movew %d2,%a0@+
183282:	30c2           	          movew %d2,%a0@+
183284:	51cd fffa      	          dbf %d5,0x183280
183288:	30c3           	          movew %d3,%a0@+
18328a:	d1fc 0000 0a20 	          addal #2592,%a0
183290:	51cc ffe8      	          dbf %d4,0x18327a
183294:	323c ffff      	          movew #-1,%d1
183298:	207c 0010 0000 	          moveal #1048576,%a0
18329e:	d1fc 0000 5522 	          addal #21794,%a0
1832a4:	343c 021f      	          movew #543,%d2
1832a8:	363c 0010      	          movew #16,%d3
1832ac:	30c1           	          movew %d1,%a0@+
1832ae:	30c1           	          movew %d1,%a0@+
1832b0:	51cb fffa      	          dbf %d3,0x1832ac
1832b4:	d1fc 0000 0044 	          addal #68,%a0
1832ba:	51ca ffec      	          dbf %d2,0x1832a8
1832be:	4241           	          clrw %d1
1832c0:	207c 0010 0000 	          moveal #1048576,%a0
1832c6:	d1fc 0000 bb3a 	          addal #47930,%a0
1832cc:	343c 009f      	          movew #159,%d2
1832d0:	363c 0004      	          movew #4,%d3
1832d4:	30c1           	          movew %d1,%a0@+
1832d6:	30c1           	          movew %d1,%a0@+
1832d8:	51cb fffa      	          dbf %d3,0x1832d4
1832dc:	d1fc 0000 0074 	          addal #116,%a0
1832e2:	51ca ffec      	          dbf %d2,0x1832d0
1832e6:	4246           	          clrw %d6
1832e8:	3e3c 0184      	          movew #388,%d7
1832ec:	3a3c fcfb      	          movew #-773,%d5
1832f0:	be46           	          cmpw %d6,%d7
1832f2:	6f24           	          bles 0x183318
1832f4:	6100 0030      	          bsrw 0x183326
1832f8:	3806           	          movew %d6,%d4
1832fa:	4a45           	          tstw %d5
1832fc:	6a08           	          bpls 0x183306
1832fe:	e544           	          aslw #2,%d4
183300:	da44           	          addw %d4,%d5
183302:	5c45           	          addqw #6,%d5
183304:	600e           	          bras 0x183314
183306:	9847           	          subw %d7,%d4
183308:	c9fc 0004      	          mulsw #4,%d4
18330c:	da44           	          addw %d4,%d5
18330e:	0645 000a      	          addiw #10,%d5
183312:	5347           	          subqw #1,%d7
183314:	5246           	          addqw #1,%d6
183316:	60d8           	          bras 0x1832f0
183318:	be46           	          cmpw %d6,%d7
18331a:	6604           	          bnes 0x183320
18331c:	6100 0008      	          bsrw 0x183326
183320:	4cdf 01fe      	          moveml %sp@+,%d1-%a0
183324:	4e75           	          rts
183326:	48e7 0300      	          moveml %d6-%d7,%sp@-
18332a:	6100 0032      	          bsrw 0x18335e
18332e:	4447           	          negw %d7
183330:	6100 002c      	          bsrw 0x18335e
183334:	4446           	          negw %d6
183336:	6100 0026      	          bsrw 0x18335e
18333a:	4447           	          negw %d7
18333c:	6100 0020      	          bsrw 0x18335e
183340:	cd47           	          exg %d6,%d7
183342:	6100 001a      	          bsrw 0x18335e
183346:	4447           	          negw %d7
183348:	6100 0014      	          bsrw 0x18335e
18334c:	4446           	          negw %d6
18334e:	6100 000e      	          bsrw 0x18335e
183352:	4447           	          negw %d7
183354:	6100 0008      	          bsrw 0x18335e
183358:	4cdf 00c0      	          moveml %sp@+,%d6-%d7
18335c:	4e75           	          rts
18335e:	48e7 0f80      	          moveml %d4-%a0,%sp@-
183362:	3a06           	          movew %d6,%d5
183364:	0285 0000 000f 	          andil #15,%d5
18336a:	207c 0010 e53a 	          moveal #1107258,%a0
183370:	e646           	          asrw #3,%d6
183372:	0246 fffe      	          andiw #-2,%d6
183376:	d0c6           	          addaw %d6,%a0
183378:	cffc 0088      	          mulsw #136,%d7
18337c:	91c7           	          subal %d7,%a0
18337e:	2810           	          movel %a0@,%d4
183380:	0bc4           	          bset %d5,%d4
183382:	2084           	          movel %d4,%a0@
183384:	4cdf 01f0      	          moveml %sp@+,%d4-%a0
183388:	4e75           	          rts

;percent focus pattern
18338a:	48e7 7cc0      	          moveml %d1-%d5/%a0-%a1,%sp@-
18338e:	6100 fdea      	          bsrw 0x18317a ;black screen
183392:	323c 0025      	          movew #37,%d1
183396:	0441 0020      	          subiw #32,%d1
18339a:	4202           	          clrb %d2
18339c:	207c 0010 0660 	          moveal #1050208,%a0
1833a2:	363c 001b      	          movew #27,%d3
1833a6:	227c 0018 1ee2 	          moveal #1580770,%a1
1833ac:	d2c1           	          addaw %d1,%a1
1833ae:	383c 000e      	          movew #14,%d4
1833b2:	3a3c 0043      	          movew #67,%d5
1833b6:	10c2           	          moveb %d2,%a0@+
1833b8:	10d1           	          moveb %a1@,%a0@+
1833ba:	51cd fffa      	          dbf %d5,0x1833b6
1833be:	d3fc 0000 0060 	          addal #96,%a1
1833c4:	51cc ffec      	          dbf %d4,0x1833b2
1833c8:	227c 0018 1ee2 	          moveal #1580770,%a1
1833ce:	d2c1           	          addaw %d1,%a1
1833d0:	383c 000e      	          movew #14,%d4
1833d4:	3a3c 0043      	          movew #67,%d5
1833d8:	10d1           	          moveb %a1@,%a0@+
1833da:	10c2           	          moveb %d2,%a0@+
1833dc:	51cd fffa      	          dbf %d5,0x1833d8
1833e0:	d3fc 0000 0060 	          addal #96,%a1
1833e6:	51cc ffec      	          dbf %d4,0x1833d4
1833ea:	51cb ffba      	          dbf %d3,0x1833a6
1833ee:	4cdf 033e      	          moveml %sp@+,%d1-%d5/%a0-%a1
1833f2:	4e75           	          rts

1833f4:	6100 001a      	          bsrw 0x183410
1833f8:	1039 0001 fff9 	          moveb 0x1fff9,%d0
1833fe:	67f8           	          beqs 0x1833f8
183400:	227c 0018 2e3a 	          moveal #1584698,%a1
183406:	323c 0007      	          movew #7,%d1
18340a:	6100 fac2      	          bsrw 0x182ece
18340e:	60e8           	          bras 0x1833f8

183410:	6100 fb7c      	          bsrw 0x182f8e
183414:	207c 0018 2880 	          moveal #1583232,%a0 ;"Numeric Keypad Opt"
18341a:	6000 f87c      	          braw 0x182c98 ;print string

18341e:	6100 fb6e      	          bsrw 0x182f8e
183422:	207c 0018 2980 	          moveal #1583488,%a0 ;"Data Pad Button T"
183428:	6100 f86e      	          bsrw 0x182c98 ;print string
18342c:	51f9 0001 fffa 	          sf 0x1fffa
183432:	1039 0001 fff9 	          moveb 0x1fff9,%d0
183438:	6712           	          beqs 0x18344c
18343a:	4239 0001 fff9 	          clrb 0x1fff9
183440:	0c00 0094      	          cmpib #-108,%d0 ;Keypad .
183444:	6606           	          bnes 0x18344c
183446:	4a9f           	          tstl %sp@+
183448:	6000 ffaa      	          braw 0x1833f4
18344c:	1439 0001 fffa 	          moveb 0x1fffa,%d2
183452:	67de           	          beqs 0x183432
183454:	e60a           	          lsrb #3,%d2
183456:	6100 f89c      	          bsrw 0x182cf4
18345a:	4239 0001 fffa 	          clrb 0x1fffa
183460:	60d0           	          bras 0x183432
183462:	6100 001a      	          bsrw 0x18347e
183466:	1039 0001 fff9 	          moveb 0x1fff9,%d0
18346c:	67f8           	          beqs 0x183466
18346e:	227c 0018 2e5a 	          moveal #1584730,%a1
183474:	323c 0007      	          movew #7,%d1
183478:	6100 fa54      	          bsrw 0x182ece
18347c:	60e8           	          bras 0x183466

18347e:	6100 fb0e      	          bsrw 0x182f8e
183482:	207c 0018 29e2 	          moveal #1583586,%a0 ;"Fibre Tests"
183488:	6000 f80e      	          braw 0x182c98 ;print string

18348c:	6100 001c      	          bsrw 0x1834aa
183490:	1039 0001 fff9 	          moveb 0x1fff9,%d0
183496:	67f8           	          beqs 0x183490
183498:	227c 0018 2e7a 	          moveal #1584762,%a1
18349e:	323c 0005      	          movew #5,%d1
1834a2:	6100 fa2a      	          bsrw 0x182ece
1834a6:	60e8           	          bras 0x183490
1834a8:	4e75           	          rts

1834aa:	6100 fae2      	          bsrw 0x182f8e
1834ae:	207c 0018 2b44 	          moveal #1583940,%a0 ;"BBA Tests"
1834b4:	6100 f7e2      	          bsrw 0x182c98 ;print string
1834b8:	0800 0011      	          btst #17,%d0
1834bc:	6604           	          bnes 0x1834c2
1834be:	4242           	          clrw %d2
1834c0:	600c           	          bras 0x1834ce
1834c2:	3439 0030 01fe 	          movew 0x3001fe,%d2
1834c8:	33c2 0030 01fe 	          movew %d2,0x3001fe
1834ce:	6100 f7e0      	          bsrw 0x182cb0
1834d2:	207c 0018 2b5e 	          moveal #1583966,%a0 ;"Numeric Keypad Opt"
1834d8:	6000 f7be      	          braw 0x182c98 ;print string

rom_checksum:
1834dc:	3f88

1834e0: ffff
1834e2: ffff
1834e2:	ffff
1834e4:	ffff
1834e6:	ffff
1834e8:	ffff
1834ea:	ffff
1834ec:	ffff
1834ee:	ffff
1834f0:	ffff
1834f2:	ffff
1834f4:	ffff
1834f6:	ffff
1834f8:	ffff
1834fa:	ffff
1834fc:	ffff
1834fe:	ffff
183500:	ffff
183502:	ffff
183504:	ffff
183506:	ffff
183508:	ffff
18350a:	ffff
18350c:	ffff
18350e:	ffff
183510:	ffff
183512:	ffff
183514:	ffff
183516:	ffff
183518:	ffff
18351a:	ffff
18351c:	ffff
18351e:	ffff
183520:	ffff
183522:	ffff
183524:	ffff
183526:	ffff
183528:	ffff
18352a:	ffff
18352c:	ffff
18352e:	ffff
183530:	ffff
183532:	ffff
183534:	ffff
183536:	ffff
183538:	ffff
18353a:	ffff
18353c:	ffff
18353e:	ffff
183540:	ffff
183542:	ffff
183544:	ffff
183546:	ffff
183548:	ffff
18354a:	ffff
18354c:	ffff
18354e:	ffff
183550:	ffff
183552:	ffff
183554:	ffff
183556:	ffff
183558:	ffff
18355a:	ffff
18355c:	ffff
18355e:	ffff
183560:	ffff
183562:	ffff
183564:	ffff
183566:	ffff
183568:	ffff
18356a:	ffff
18356c:	ffff
18356e:	ffff
183570:	ffff
183572:	ffff
183574:	ffff
183576:	ffff
183578:	ffff
18357a:	ffff
18357c:	ffff
18357e:	ffff
183580:	ffff
183582:	ffff
183584:	ffff
183586:	ffff
183588:	ffff
18358a:	ffff
18358c:	ffff
18358e:	ffff
183590:	ffff
183592:	ffff
183594:	ffff
183596:	ffff
183598:	ffff
18359a:	ffff
18359c:	ffff
18359e:	ffff
1835a0:	ffff
1835a2:	ffff
1835a4:	ffff
1835a6:	ffff
1835a8:	ffff
1835aa:	ffff
1835ac:	ffff
1835ae:	ffff
1835b0:	ffff
1835b2:	ffff
1835b4:	ffff
1835b6:	ffff
1835b8:	ffff
1835ba:	ffff
1835bc:	ffff
1835be:	ffff
1835c0:	ffff
1835c2:	ffff
1835c4:	ffff
1835c6:	ffff
1835c8:	ffff
1835ca:	ffff
1835cc:	ffff
1835ce:	ffff
1835d0:	ffff
1835d2:	ffff
1835d4:	ffff
1835d6:	ffff
1835d8:	ffff
1835da:	ffff
1835dc:	ffff
1835de:	ffff
1835e0:	ffff
1835e2:	ffff
1835e4:	ffff
1835e6:	ffff
1835e8:	ffff
1835ea:	ffff
1835ec:	ffff
1835ee:	ffff
1835f0:	ffff
1835f2:	ffff
1835f4:	ffff
1835f6:	ffff
1835f8:	ffff
1835fa:	ffff
1835fc:	ffff
1835fe:	ffff
183600:	ffff
183602:	ffff
183604:	ffff
183606:	ffff
183608:	ffff
18360a:	ffff
18360c:	ffff
18360e:	ffff
183610:	ffff
183612:	ffff
183614:	ffff
183616:	ffff
183618:	ffff
18361a:	ffff
18361c:	ffff
18361e:	ffff
183620:	ffff
183622:	ffff
183624:	ffff
183626:	ffff
183628:	ffff
18362a:	ffff
18362c:	ffff
18362e:	ffff
183630:	ffff
183632:	ffff
183634:	ffff
183636:	ffff
183638:	ffff
18363a:	ffff
18363c:	ffff
18363e:	ffff
183640:	ffff
183642:	ffff
183644:	ffff
183646:	ffff
183648:	ffff
18364a:	ffff
18364c:	ffff
18364e:	ffff
183650:	ffff
183652:	ffff
183654:	ffff
183656:	ffff
183658:	ffff
18365a:	ffff
18365c:	ffff
18365e:	ffff
183660:	ffff
183662:	ffff
183664:	ffff
183666:	ffff
183668:	ffff
18366a:	ffff
18366c:	ffff
18366e:	ffff
183670:	ffff
183672:	ffff
183674:	ffff
183676:	ffff
183678:	ffff
18367a:	ffff
18367c:	ffff
18367e:	ffff
183680:	ffff
183682:	ffff
183684:	ffff
183686:	ffff
183688:	ffff
18368a:	ffff
18368c:	ffff
18368e:	ffff
183690:	ffff
183692:	ffff
183694:	ffff
183696:	ffff
183698:	ffff
18369a:	ffff
18369c:	ffff
18369e:	ffff
1836a0:	ffff
1836a2:	ffff
1836a4:	ffff
1836a6:	ffff
1836a8:	ffff
1836aa:	ffff
1836ac:	ffff
1836ae:	ffff
1836b0:	ffff
1836b2:	ffff
1836b4:	ffff
1836b6:	ffff
1836b8:	ffff
1836ba:	ffff
1836bc:	ffff
1836be:	ffff
1836c0:	ffff
1836c2:	ffff
1836c4:	ffff
1836c6:	ffff
1836c8:	ffff
1836ca:	ffff
1836cc:	ffff
1836ce:	ffff
1836d0:	ffff
1836d2:	ffff
1836d4:	ffff
1836d6:	ffff
1836d8:	ffff
1836da:	ffff
1836dc:	ffff
1836de:	ffff
1836e0:	ffff
1836e2:	ffff
1836e4:	ffff
1836e6:	ffff
1836e8:	ffff
1836ea:	ffff
1836ec:	ffff
1836ee:	ffff
1836f0:	ffff
1836f2:	ffff
1836f4:	ffff
1836f6:	ffff
1836f8:	ffff
1836fa:	ffff
1836fc:	ffff
1836fe:	ffff
183700:	ffff
183702:	ffff
183704:	ffff
183706:	ffff
183708:	ffff
18370a:	ffff
18370c:	ffff
18370e:	ffff
183710:	ffff
183712:	ffff
183714:	ffff
183716:	ffff
183718:	ffff
18371a:	ffff
18371c:	ffff
18371e:	ffff
183720:	ffff
183722:	ffff
183724:	ffff
183726:	ffff
183728:	ffff
18372a:	ffff
18372c:	ffff
18372e:	ffff
183730:	ffff
183732:	ffff
183734:	ffff
183736:	ffff
183738:	ffff
18373a:	ffff
18373c:	ffff
18373e:	ffff
183740:	ffff
183742:	ffff
183744:	ffff
183746:	ffff
183748:	ffff
18374a:	ffff
18374c:	ffff
18374e:	ffff
183750:	ffff
183752:	ffff
183754:	ffff
183756:	ffff
183758:	ffff
18375a:	ffff
18375c:	ffff
18375e:	ffff
183760:	ffff
183762:	ffff
183764:	ffff
183766:	ffff
183768:	ffff
18376a:	ffff
18376c:	ffff
18376e:	ffff
183770:	ffff
183772:	ffff
183774:	ffff
183776:	ffff
183778:	ffff
18377a:	ffff
18377c:	ffff
18377e:	ffff
183780:	ffff
183782:	ffff
183784:	ffff
183786:	ffff
183788:	ffff
18378a:	ffff
18378c:	ffff
18378e:	ffff
183790:	ffff
183792:	ffff
183794:	ffff
183796:	ffff
183798:	ffff
18379a:	ffff
18379c:	ffff
18379e:	ffff
1837a0:	ffff
1837a2:	ffff
1837a4:	ffff
1837a6:	ffff
1837a8:	ffff
1837aa:	ffff
1837ac:	ffff
1837ae:	ffff
1837b0:	ffff
1837b2:	ffff
1837b4:	ffff
1837b6:	ffff
1837b8:	ffff
1837ba:	ffff
1837bc:	ffff
1837be:	ffff
1837c0:	ffff
1837c2:	ffff
1837c4:	ffff
1837c6:	ffff
1837c8:	ffff
1837ca:	ffff
1837cc:	ffff
1837ce:	ffff
1837d0:	ffff
1837d2:	ffff
1837d4:	ffff
1837d6:	ffff
1837d8:	ffff
1837da:	ffff
1837dc:	ffff
1837de:	ffff
1837e0:	ffff
1837e2:	ffff
1837e4:	ffff
1837e6:	ffff
1837e8:	ffff
1837ea:	ffff
1837ec:	ffff
1837ee:	ffff
1837f0:	ffff
1837f2:	ffff
1837f4:	ffff
1837f6:	ffff
1837f8:	ffff
1837fa:	ffff
1837fc:	ffff
1837fe:	ffff
183800:	ffff
183802:	ffff
183804:	ffff
183806:	ffff
183808:	ffff
18380a:	ffff
18380c:	ffff
18380e:	ffff
183810:	ffff
183812:	ffff
183814:	ffff
183816:	ffff
183818:	ffff
18381a:	ffff
18381c:	ffff
18381e:	ffff
183820:	ffff
183822:	ffff
183824:	ffff
183826:	ffff
183828:	ffff
18382a:	ffff
18382c:	ffff
18382e:	ffff
183830:	ffff
183832:	ffff
183834:	ffff
183836:	ffff
183838:	ffff
18383a:	ffff
18383c:	ffff
18383e:	ffff
183840:	ffff
183842:	ffff
183844:	ffff
183846:	ffff
183848:	ffff
18384a:	ffff
18384c:	ffff
18384e:	ffff
183850:	ffff
183852:	ffff
183854:	ffff
183856:	ffff
183858:	ffff
18385a:	ffff
18385c:	ffff
18385e:	ffff
183860:	ffff
183862:	ffff
183864:	ffff
183866:	ffff
183868:	ffff
18386a:	ffff
18386c:	ffff
18386e:	ffff
183870:	ffff
183872:	ffff
183874:	ffff
183876:	ffff
183878:	ffff
18387a:	ffff
18387c:	ffff
18387e:	ffff
183880:	ffff
183882:	ffff
183884:	ffff
183886:	ffff
183888:	ffff
18388a:	ffff
18388c:	ffff
18388e:	ffff
183890:	ffff
183892:	ffff
183894:	ffff
183896:	ffff
183898:	ffff
18389a:	ffff
18389c:	ffff
18389e:	ffff
1838a0:	ffff
1838a2:	ffff
1838a4:	ffff
1838a6:	ffff
1838a8:	ffff
1838aa:	ffff
1838ac:	ffff
1838ae:	ffff
1838b0:	ffff
1838b2:	ffff
1838b4:	ffff
1838b6:	ffff
1838b8:	ffff
1838ba:	ffff
1838bc:	ffff
1838be:	ffff
1838c0:	ffff
1838c2:	ffff
1838c4:	ffff
1838c6:	ffff
1838c8:	ffff
1838ca:	ffff
1838cc:	ffff
1838ce:	ffff
1838d0:	ffff
1838d2:	ffff
1838d4:	ffff
1838d6:	ffff
1838d8:	ffff
1838da:	ffff
1838dc:	ffff
1838de:	ffff
1838e0:	ffff
1838e2:	ffff
1838e4:	ffff
1838e6:	ffff
1838e8:	ffff
1838ea:	ffff
1838ec:	ffff
1838ee:	ffff
1838f0:	ffff
1838f2:	ffff
1838f4:	ffff
1838f6:	ffff
1838f8:	ffff
1838fa:	ffff
1838fc:	ffff
1838fe:	ffff
183900:	ffff
183902:	ffff
183904:	ffff
183906:	ffff
183908:	ffff
18390a:	ffff
18390c:	ffff
18390e:	ffff
183910:	ffff
183912:	ffff
183914:	ffff
183916:	ffff
183918:	ffff
18391a:	ffff
18391c:	ffff
18391e:	ffff
183920:	ffff
183922:	ffff
183924:	ffff
183926:	ffff
183928:	ffff
18392a:	ffff
18392c:	ffff
18392e:	ffff
183930:	ffff
183932:	ffff
183934:	ffff
183936:	ffff
183938:	ffff
18393a:	ffff
18393c:	ffff
18393e:	ffff
183940:	ffff
183942:	ffff
183944:	ffff
183946:	ffff
183948:	ffff
18394a:	ffff
18394c:	ffff
18394e:	ffff
183950:	ffff
183952:	ffff
183954:	ffff
183956:	ffff
183958:	ffff
18395a:	ffff
18395c:	ffff
18395e:	ffff
183960:	ffff
183962:	ffff
183964:	ffff
183966:	ffff
183968:	ffff
18396a:	ffff
18396c:	ffff
18396e:	ffff
183970:	ffff
183972:	ffff
183974:	ffff
183976:	ffff
183978:	ffff
18397a:	ffff
18397c:	ffff
18397e:	ffff
183980:	ffff
183982:	ffff
183984:	ffff
183986:	ffff
183988:	ffff
18398a:	ffff
18398c:	ffff
18398e:	ffff
183990:	ffff
183992:	ffff
183994:	ffff
183996:	ffff
183998:	ffff
18399a:	ffff
18399c:	ffff
18399e:	ffff
1839a0:	ffff
1839a2:	ffff
1839a4:	ffff
1839a6:	ffff
1839a8:	ffff
1839aa:	ffff
1839ac:	ffff
1839ae:	ffff
1839b0:	ffff
1839b2:	ffff
1839b4:	ffff
1839b6:	ffff
1839b8:	ffff
1839ba:	ffff
1839bc:	ffff
1839be:	ffff
1839c0:	ffff
1839c2:	ffff
1839c4:	ffff
1839c6:	ffff
1839c8:	ffff
1839ca:	ffff
1839cc:	ffff
1839ce:	ffff
1839d0:	ffff
1839d2:	ffff
1839d4:	ffff
1839d6:	ffff
1839d8:	ffff
1839da:	ffff
1839dc:	ffff
1839de:	ffff
1839e0:	ffff
1839e2:	ffff
1839e4:	ffff
1839e6:	ffff
1839e8:	ffff
1839ea:	ffff
1839ec:	ffff
1839ee:	ffff
1839f0:	ffff
1839f2:	ffff
1839f4:	ffff
1839f6:	ffff
1839f8:	ffff
1839fa:	ffff
1839fc:	ffff
1839fe:	ffff
183a00:	ffff
183a02:	ffff
183a04:	ffff
183a06:	ffff
183a08:	ffff
183a0a:	ffff
183a0c:	ffff
183a0e:	ffff
183a10:	ffff
183a12:	ffff
183a14:	ffff
183a16:	ffff
183a18:	ffff
183a1a:	ffff
183a1c:	ffff
183a1e:	ffff
183a20:	ffff
183a22:	ffff
183a24:	ffff
183a26:	ffff
183a28:	ffff
183a2a:	ffff
183a2c:	ffff
183a2e:	ffff
183a30:	ffff
183a32:	ffff
183a34:	ffff
183a36:	ffff
183a38:	ffff
183a3a:	ffff
183a3c:	ffff
183a3e:	ffff
183a40:	ffff
183a42:	ffff
183a44:	ffff
183a46:	ffff
183a48:	ffff
183a4a:	ffff
183a4c:	ffff
183a4e:	ffff
183a50:	ffff
183a52:	ffff
183a54:	ffff
183a56:	ffff
183a58:	ffff
183a5a:	ffff
183a5c:	ffff
183a5e:	ffff
183a60:	ffff
183a62:	ffff
183a64:	ffff
183a66:	ffff
183a68:	ffff
183a6a:	ffff
183a6c:	ffff
183a6e:	ffff
183a70:	ffff
183a72:	ffff
183a74:	ffff
183a76:	ffff
183a78:	ffff
183a7a:	ffff
183a7c:	ffff
183a7e:	ffff
183a80:	ffff
183a82:	ffff
183a84:	ffff
183a86:	ffff
183a88:	ffff
183a8a:	ffff
183a8c:	ffff
183a8e:	ffff
183a90:	ffff
183a92:	ffff
183a94:	ffff
183a96:	ffff
183a98:	ffff
183a9a:	ffff
183a9c:	ffff
183a9e:	ffff
183aa0:	ffff
183aa2:	ffff
183aa4:	ffff
183aa6:	ffff
183aa8:	ffff
183aaa:	ffff
183aac:	ffff
183aae:	ffff
183ab0:	ffff
183ab2:	ffff
183ab4:	ffff
183ab6:	ffff
183ab8:	ffff
183aba:	ffff
183abc:	ffff
183abe:	ffff
183ac0:	ffff
183ac2:	ffff
183ac4:	ffff
183ac6:	ffff
183ac8:	ffff
183aca:	ffff
183acc:	ffff
183ace:	ffff
183ad0:	ffff
183ad2:	ffff
183ad4:	ffff
183ad6:	ffff
183ad8:	ffff
183ada:	ffff
183adc:	ffff
183ade:	ffff
183ae0:	ffff
183ae2:	ffff
183ae4:	ffff
183ae6:	ffff
183ae8:	ffff
183aea:	ffff
183aec:	ffff
183aee:	ffff
183af0:	ffff
183af2:	ffff
183af4:	ffff
183af6:	ffff
183af8:	ffff
183afa:	ffff
183afc:	ffff
183afe:	ffff
183b00:	ffff
183b02:	ffff
183b04:	ffff
183b06:	ffff
183b08:	ffff
183b0a:	ffff
183b0c:	ffff
183b0e:	ffff
183b10:	ffff
183b12:	ffff
183b14:	ffff
183b16:	ffff
183b18:	ffff
183b1a:	ffff
183b1c:	ffff
183b1e:	ffff
183b20:	ffff
183b22:	ffff
183b24:	ffff
183b26:	ffff
183b28:	ffff
183b2a:	ffff
183b2c:	ffff
183b2e:	ffff
183b30:	ffff
183b32:	ffff
183b34:	ffff
183b36:	ffff
183b38:	ffff
183b3a:	ffff
183b3c:	ffff
183b3e:	ffff
183b40:	ffff
183b42:	ffff
183b44:	ffff
183b46:	ffff
183b48:	ffff
183b4a:	ffff
183b4c:	ffff
183b4e:	ffff
183b50:	ffff
183b52:	ffff
183b54:	ffff
183b56:	ffff
183b58:	ffff
183b5a:	ffff
183b5c:	ffff
183b5e:	ffff
183b60:	ffff
183b62:	ffff
183b64:	ffff
183b66:	ffff
183b68:	ffff
183b6a:	ffff
183b6c:	ffff
183b6e:	ffff
183b70:	ffff
183b72:	ffff
183b74:	ffff
183b76:	ffff
183b78:	ffff
183b7a:	ffff
183b7c:	ffff
183b7e:	ffff
183b80:	ffff
183b82:	ffff
183b84:	ffff
183b86:	ffff
183b88:	ffff
183b8a:	ffff
183b8c:	ffff
183b8e:	ffff
183b90:	ffff
183b92:	ffff
183b94:	ffff
183b96:	ffff
183b98:	ffff
183b9a:	ffff
183b9c:	ffff
183b9e:	ffff
183ba0:	ffff
183ba2:	ffff
183ba4:	ffff
183ba6:	ffff
183ba8:	ffff
183baa:	ffff
183bac:	ffff
183bae:	ffff
183bb0:	ffff
183bb2:	ffff
183bb4:	ffff
183bb6:	ffff
183bb8:	ffff
183bba:	ffff
183bbc:	ffff
183bbe:	ffff
183bc0:	ffff
183bc2:	ffff
183bc4:	ffff
183bc6:	ffff
183bc8:	ffff
183bca:	ffff
183bcc:	ffff
183bce:	ffff
183bd0:	ffff
183bd2:	ffff
183bd4:	ffff
183bd6:	ffff
183bd8:	ffff
183bda:	ffff
183bdc:	ffff
183bde:	ffff
183be0:	ffff
183be2:	ffff
183be4:	ffff
183be6:	ffff
183be8:	ffff
183bea:	ffff
183bec:	ffff
183bee:	ffff
183bf0:	ffff
183bf2:	ffff
183bf4:	ffff
183bf6:	ffff
183bf8:	ffff
183bfa:	ffff
183bfc:	ffff
183bfe:	ffff
183c00:	ffff
183c02:	ffff
183c04:	ffff
183c06:	ffff
183c08:	ffff
183c0a:	ffff
183c0c:	ffff
183c0e:	ffff
183c10:	ffff
183c12:	ffff
183c14:	ffff
183c16:	ffff
183c18:	ffff
183c1a:	ffff
183c1c:	ffff
183c1e:	ffff
183c20:	ffff
183c22:	ffff
183c24:	ffff
183c26:	ffff
183c28:	ffff
183c2a:	ffff
183c2c:	ffff
183c2e:	ffff
183c30:	ffff
183c32:	ffff
183c34:	ffff
183c36:	ffff
183c38:	ffff
183c3a:	ffff
183c3c:	ffff
183c3e:	ffff
183c40:	ffff
183c42:	ffff
183c44:	ffff
183c46:	ffff
183c48:	ffff
183c4a:	ffff
183c4c:	ffff
183c4e:	ffff
183c50:	ffff
183c52:	ffff
183c54:	ffff
183c56:	ffff
183c58:	ffff
183c5a:	ffff
183c5c:	ffff
183c5e:	ffff
183c60:	ffff
183c62:	ffff
183c64:	ffff
183c66:	ffff
183c68:	ffff
183c6a:	ffff
183c6c:	ffff
183c6e:	ffff
183c70:	ffff
183c72:	ffff
183c74:	ffff
183c76:	ffff
183c78:	ffff
183c7a:	ffff
183c7c:	ffff
183c7e:	ffff
183c80:	ffff
183c82:	ffff
183c84:	ffff
183c86:	ffff
183c88:	ffff
183c8a:	ffff
183c8c:	ffff
183c8e:	ffff
183c90:	ffff
183c92:	ffff
183c94:	ffff
183c96:	ffff
183c98:	ffff
183c9a:	ffff
183c9c:	ffff
183c9e:	ffff
183ca0:	ffff
183ca2:	ffff
183ca4:	ffff
183ca6:	ffff
183ca8:	ffff
183caa:	ffff
183cac:	ffff
183cae:	ffff
183cb0:	ffff
183cb2:	ffff
183cb4:	ffff
183cb6:	ffff
183cb8:	ffff
183cba:	ffff
183cbc:	ffff
183cbe:	ffff
183cc0:	ffff
183cc2:	ffff
183cc4:	ffff
183cc6:	ffff
183cc8:	ffff
183cca:	ffff
183ccc:	ffff
183cce:	ffff
183cd0:	ffff
183cd2:	ffff
183cd4:	ffff
183cd6:	ffff
183cd8:	ffff
183cda:	ffff
183cdc:	ffff
183cde:	ffff
183ce0:	ffff
183ce2:	ffff
183ce4:	ffff
183ce6:	ffff
183ce8:	ffff
183cea:	ffff
183cec:	ffff
183cee:	ffff
183cf0:	ffff
183cf2:	ffff
183cf4:	ffff
183cf6:	ffff
183cf8:	ffff
183cfa:	ffff
183cfc:	ffff
183cfe:	ffff
183d00:	ffff
183d02:	ffff
183d04:	ffff
183d06:	ffff
183d08:	ffff
183d0a:	ffff
183d0c:	ffff
183d0e:	ffff
183d10:	ffff
183d12:	ffff
183d14:	ffff
183d16:	ffff
183d18:	ffff
183d1a:	ffff
183d1c:	ffff
183d1e:	ffff
183d20:	ffff
183d22:	ffff
183d24:	ffff
183d26:	ffff
183d28:	ffff
183d2a:	ffff
183d2c:	ffff
183d2e:	ffff
183d30:	ffff
183d32:	ffff
183d34:	ffff
183d36:	ffff
183d38:	ffff
183d3a:	ffff
183d3c:	ffff
183d3e:	ffff
183d40:	ffff
183d42:	ffff
183d44:	ffff
183d46:	ffff
183d48:	ffff
183d4a:	ffff
183d4c:	ffff
183d4e:	ffff
183d50:	ffff
183d52:	ffff
183d54:	ffff
183d56:	ffff
183d58:	ffff
183d5a:	ffff
183d5c:	ffff
183d5e:	ffff
183d60:	ffff
183d62:	ffff
183d64:	ffff
183d66:	ffff
183d68:	ffff
183d6a:	ffff
183d6c:	ffff
183d6e:	ffff
183d70:	ffff
183d72:	ffff
183d74:	ffff
183d76:	ffff
183d78:	ffff
183d7a:	ffff
183d7c:	ffff
183d7e:	ffff
183d80:	ffff
183d82:	ffff
183d84:	ffff
183d86:	ffff
183d88:	ffff
183d8a:	ffff
183d8c:	ffff
183d8e:	ffff
183d90:	ffff
183d92:	ffff
183d94:	ffff
183d96:	ffff
183d98:	ffff
183d9a:	ffff
183d9c:	ffff
183d9e:	ffff
183da0:	ffff
183da2:	ffff
183da4:	ffff
183da6:	ffff
183da8:	ffff
183daa:	ffff
183dac:	ffff
183dae:	ffff
183db0:	ffff
183db2:	ffff
183db4:	ffff
183db6:	ffff
183db8:	ffff
183dba:	ffff
183dbc:	ffff
183dbe:	ffff
183dc0:	ffff
183dc2:	ffff
183dc4:	ffff
183dc6:	ffff
183dc8:	ffff
183dca:	ffff
183dcc:	ffff
183dce:	ffff
183dd0:	ffff
183dd2:	ffff
183dd4:	ffff
183dd6:	ffff
183dd8:	ffff
183dda:	ffff
183ddc:	ffff
183dde:	ffff
183de0:	ffff
183de2:	ffff
183de4:	ffff
183de6:	ffff
183de8:	ffff
183dea:	ffff
183dec:	ffff
183dee:	ffff
183df0:	ffff
183df2:	ffff
183df4:	ffff
183df6:	ffff
183df8:	ffff
183dfa:	ffff
183dfc:	ffff
183dfe:	ffff
183e00:	ffff
183e02:	ffff
183e04:	ffff
183e06:	ffff
183e08:	ffff
183e0a:	ffff
183e0c:	ffff
183e0e:	ffff
183e10:	ffff
183e12:	ffff
183e14:	ffff
183e16:	ffff
183e18:	ffff
183e1a:	ffff
183e1c:	ffff
183e1e:	ffff
183e20:	ffff
183e22:	ffff
183e24:	ffff
183e26:	ffff
183e28:	ffff
183e2a:	ffff
183e2c:	ffff
183e2e:	ffff
183e30:	ffff
183e32:	ffff
183e34:	ffff
183e36:	ffff
183e38:	ffff
183e3a:	ffff
183e3c:	ffff
183e3e:	ffff
183e40:	ffff
183e42:	ffff
183e44:	ffff
183e46:	ffff
183e48:	ffff
183e4a:	ffff
183e4c:	ffff
183e4e:	ffff
183e50:	ffff
183e52:	ffff
183e54:	ffff
183e56:	ffff
183e58:	ffff
183e5a:	ffff
183e5c:	ffff
183e5e:	ffff
183e60:	ffff
183e62:	ffff
183e64:	ffff
183e66:	ffff
183e68:	ffff
183e6a:	ffff
183e6c:	ffff
183e6e:	ffff
183e70:	ffff
183e72:	ffff
183e74:	ffff
183e76:	ffff
183e78:	ffff
183e7a:	ffff
183e7c:	ffff
183e7e:	ffff
183e80:	ffff
183e82:	ffff
183e84:	ffff
183e86:	ffff
183e88:	ffff
183e8a:	ffff
183e8c:	ffff
183e8e:	ffff
183e90:	ffff
183e92:	ffff
183e94:	ffff
183e96:	ffff
183e98:	ffff
183e9a:	ffff
183e9c:	ffff
183e9e:	ffff
183ea0:	ffff
183ea2:	ffff
183ea4:	ffff
183ea6:	ffff
183ea8:	ffff
183eaa:	ffff
183eac:	ffff
183eae:	ffff
183eb0:	ffff
183eb2:	ffff
183eb4:	ffff
183eb6:	ffff
183eb8:	ffff
183eba:	ffff
183ebc:	ffff
183ebe:	ffff
183ec0:	ffff
183ec2:	ffff
183ec4:	ffff
183ec6:	ffff
183ec8:	ffff
183eca:	ffff
183ecc:	ffff
183ece:	ffff
183ed0:	ffff
183ed2:	ffff
183ed4:	ffff
183ed6:	ffff
183ed8:	ffff
183eda:	ffff
183edc:	ffff
183ede:	ffff
183ee0:	ffff
183ee2:	ffff
183ee4:	ffff
183ee6:	ffff
183ee8:	ffff
183eea:	ffff
183eec:	ffff
183eee:	ffff
183ef0:	ffff
183ef2:	ffff
183ef4:	ffff
183ef6:	ffff
183ef8:	ffff
183efa:	ffff
183efc:	ffff
183efe:	ffff
183f00:	ffff
183f02:	ffff
183f04:	ffff
183f06:	ffff
183f08:	ffff
183f0a:	ffff
183f0c:	ffff
183f0e:	ffff
183f10:	ffff
183f12:	ffff
183f14:	ffff
183f16:	ffff
183f18:	ffff
183f1a:	ffff
183f1c:	ffff
183f1e:	ffff
183f20:	ffff
183f22:	ffff
183f24:	ffff
183f26:	ffff
183f28:	ffff
183f2a:	ffff
183f2c:	ffff
183f2e:	ffff
183f30:	ffff
183f32:	ffff
183f34:	ffff
183f36:	ffff
183f38:	ffff
183f3a:	ffff
183f3c:	ffff
183f3e:	ffff
183f40:	ffff
183f42:	ffff
183f44:	ffff
183f46:	ffff
183f48:	ffff
183f4a:	ffff
183f4c:	ffff
183f4e:	ffff
183f50:	ffff
183f52:	ffff
183f54:	ffff
183f56:	ffff
183f58:	ffff
183f5a:	ffff
183f5c:	ffff
183f5e:	ffff
183f60:	ffff
183f62:	ffff
183f64:	ffff
183f66:	ffff
183f68:	ffff
183f6a:	ffff
183f6c:	ffff
183f6e:	ffff
183f70:	ffff
183f72:	ffff
183f74:	ffff
183f76:	ffff
183f78:	ffff
183f7a:	ffff
183f7c:	ffff
183f7e:	ffff
183f80:	ffff
183f82:	ffff
183f84:	ffff
183f86:	ffff
183f88:	ffff
183f8a:	ffff
183f8c:	ffff
183f8e:	ffff
183f90:	ffff
183f92:	ffff
183f94:	ffff
183f96:	ffff
183f98:	ffff
183f9a:	ffff
183f9c:	ffff
183f9e:	ffff
183fa0:	ffff
183fa2:	ffff
183fa4:	ffff
183fa6:	ffff
183fa8:	ffff
183faa:	ffff
183fac:	ffff
183fae:	ffff
183fb0:	ffff
183fb2:	ffff
183fb4:	ffff
183fb6:	ffff
183fb8:	ffff
183fba:	ffff
183fbc:	ffff
183fbe:	ffff
183fc0:	ffff
183fc2:	ffff
183fc4:	ffff
183fc6:	ffff
183fc8:	ffff
183fca:	ffff
183fcc:	ffff
183fce:	ffff
183fd0:	ffff
183fd2:	ffff
183fd4:	ffff
183fd6:	ffff
183fd8:	ffff
183fda:	ffff
183fdc:	ffff
183fde:	ffff
183fe0:	ffff
183fe2:	ffff
183fe4:	ffff
183fe6:	ffff
183fe8:	ffff
183fea:	ffff
183fec:	ffff
183fee:	ffff
183ff0:	ffff
183ff2:	ffff
183ff4:	ffff
183ff6:	ffff
183ff8:	ffff
183ffa:	ffff
183ffc:	ffff
183ffe:	ffff
