1000:	46fc 2700      	        movew #9984,%sr
1004:	2e7c 0001 bffe 	        moveal #114686,%sp
100a:	6100 3636      	        bsrw 0x4642
100e:	6100 2e04      	        bsrw 0x3e14
1012:	6100 3db6      	        bsrw 0x4dca
1016:	6100 3b8e      	        bsrw 0x4ba6
101a:	6100 3faa      	        bsrw 0x4fc6
101e:	6100 3dec      	        bsrw 0x4e0c
1022:	6100 3fd2      	        bsrw 0x4ff6
1026:	6100 4012      	        bsrw 0x503a
102a:	6100 40b0      	        bsrw 0x50dc
102e:	6100 4398      	        bsrw 0x53c8
1032:	6100 43da      	        bsrw 0x540e
1036:	6100 4b92      	        bsrw 0x5bca
103a:	6100 4138      	        bsrw 0x5174
103e:	4238 60ec      	        clrb 0x60ec
1042:	6100 3afe      	        bsrw 0x4b42
1046:	08f9 0002 0080 0007     bset #2,0x800007
104e:	08f9 0002 0080 0027     bset #2,0x800027
1056:	31fc 0004 60d4 	        movew #4,0x60d4
105c:	6100 379c      	        bsrw 0x47fa
1060:	6000 0002      	        braw 0x1064

;loop
1064:	2e7c 0001 bffe 	        moveal #114686,%sp
106a:	08f8 0001 60ea 	        bset #1,0x60ea
1070:	08b8 0000 60ec 	        bclr #0,0x60ec
1076:	46fc 2000      	        movew #8192,%sr
107a:	6100 38ba      	        bsrw 0x4936
107e:	0838 0000 552a 	        btst #0,0x552a
1084:	6708           	        beqs 0x108e
1086:	6100 4db2      	        bsrw 0x5e3a ;restore fb under cursor
108a:	6100 4bb0      	        bsrw 0x5c3c ;draw cursor
108e:	0839 0004 0080 00c1     btst #4,0x8000c1
1096:	67cc           	        beqs 0x1064
1098:	08f8 0001 60ea 	        bset #1,0x60ea
109e:	3039 0048 0000 	        movew 0x480000,%d0
10a4:	0880 0000      	        bclr #0,%d0
10a8:	67ba           	        beqs 0x1064
10aa:	2239 0048 0006 	        movel 0x480006,%d1
10b0:	4841           	        swap %d1
10b2:	21c1 5f88      	        movel %d1,0x5f88
10b6:	33c0 0048 0000 	        movew %d0,0x480000
10bc:	0838 0001 60ec 	        btst #1,0x60ec
10c2:	6704           	        beqs 0x10c8
10c4:	6100 419e      	        bsrw 0x5264
10c8:	08b8 0001 60ea 	        bclr #1,0x60ea
10ce:	e248           	        lsrw #1,%d0
10d0:	0240 001f      	        andiw #31,%d0
10d4:	e548           	        lslw #2,%d0
10d6:	0c40 0050      	        cmpiw #80,%d0
10da:	6416           	        bccs 0x10f2
10dc:	207c 0000 1100 	        moveal #4352,%a0
10e2:	2070 0000      	        moveal %a0@(0000000000000000,%d0:w),%a0
10e6:	08f8 0000 60ec 	        bset #0,0x60ec
10ec:	4e90           	        jsr %a0@
10ee:	6000 ff74      	        braw 0x1064
10f2:	31fc 8001 60d4 	        movew #-32767,0x60d4
10f8:	6100 3700      	        bsrw 0x47fa
10fc:	6000 ff66      	        braw 0x1064

;function table
1100:	0000 1150      	        orib #80,%d0
1104:	0000 115e      	        orib #94,%d0  ;1 init
1108:	0000 116c      	        orib #108,%d0 ;2 send
110c:	0000 11ea      	        orib #-22,%d0 ;3 start
1110:	0000 1150      	        orib #80,%d0
1114:	0000 11f0      	        orib #-16,%d0 ;5 power up reset
1118:	0000 1150      	        orib #80,%d0
111c:	0000 1150      	        orib #80,%d0
1120:	0000 1150      	        orib #80,%d0
1124:	0000 535e      	        orib #94,%d0  ;9 abort
1128:	0000 53b8      	        orib #-72,%d0 ;10 status
112c:	0000 5220      	        orib #32,%d0  ;11 save screen
1130:	0000 1150      	        orib #80,%d0
1134:	0000 1150      	        orib #80,%d0
1138:	0000 1150      	        orib #80,%d0
113c:	0000 1150      	        orib #80,%d0
1140:	0000 1150      	        orib #80,%d0
1144:	0000 1150      	        orib #80,%d0
1148:	0000 50a8      	        orib #-88,%d0 ;18 infinite retries
114c:	0000 50ba      	        orib #-70,%d0 ;19 finite retries

1150:	31fc 8001 60d4 	        movew #-32767,0x60d4
1156:	6100 36a2      	        bsrw 0x47fa
115a:	6000 ff08      	        braw 0x1064

;1 init
115e:	2e79 0018 0000 	        moveal 0x180000,%sp
1164:	2079 0018 0084 	        moveal 0x180084,%a0
116a:	4ed0           	        jmp %a0@

;2 send
116c:	2078 5f88      	        moveal 0x5f88,%a0
1170:	3010           	        movew %a0@,%d0  ;get opcode
1172:	2218           	        movel %a0@+,%d1 ;get modifiers
1174:	4841           	        swap %d1
1176:	5848           	        addqw #4,%a0
1178:	21c8 5f8c      	        movel %a0,0x5f8c
117c:	e089           	        lsrl #8,%d1
117e:	21c1 5f90      	        movel %d1,0x5f90 ;modifier
1182:	0240 00ff      	        andiw #255,%d0
1186:	e548           	        lslw #2,%d0
1188:	0c40 0040      	        cmpiw #64,%d0
118c:	640e           	        bccs 0x119c
118e:	207c 0000 11aa 	        moveal #4522,%a0
1194:	2070 0000      	        moveal %a0@(0,%d0:w),%a0
1198:	4e90           	        jsr %a0@
119a:	4e75           	        rts
119c:	31fc 8002 60d4 	        movew #-32766,0x60d4
11a2:	6100 3656      	        bsrw 0x47fa
11a6:	6000 febc      	        braw 0x1064

11aa:	0000 11fe      	        orib #-2,%d0  ;0 noop
11ae:	0000 120a      	        orib #10,%d0  ;1 copy area
11b2:	0000 12aa      	        orib #-86,%d0 ;2 draw curve
11b6:	0000 1bc2      	        orib #-62,%d0 ;3 print text
11ba:	0000 2528      	        orib #40,%d0  ;4 flood area
11be:	0000 2ab4      	        orib #-76,%d0 ;5 load cursor
11c2:	0000 2d50      	        orib #80,%d0  ;6 set cur pos
11c6:	0000 2d84      	        orib #-124,%d0;7 attach cursor
11ca:	0000 2dbc      	        orib #-68,%d0 ;8 get cur pos
11ce:	0000 2dd6      	        orib #-42,%d0 ;9 move object
11d2:	0000 2ee0      	        orib #-32,%d0 ;10 report status
11d6:	0000 2f82      	        orib #-126,%d0;11 fill area
11da:	0000 3624      	        orib #36,%d0  ;12 get mouse pos
11de:	0000 363e      	        orib #62,%d0  ;13 set mouse characteristics
11e2:	0000 3668      	        orib #104,%d0 ;14 get tablet pos
11e6:	0000 3682      	        orib #-126,%d0;15 set point dev report

;3 start
11ea:	2078 5f88      	        moveal 0x5f88,%a0
11ee:	4ed0           	        jmp %a0@

;5 power up reset
11f0:	2e79 0018 0000 	        moveal 0x180000,%sp
11f6:	2079 0018 0080 	        moveal 0x180080,%a0
11fc:	4ed0           	        jmp %a0@

;0 noop
11fe:	31fc 0002 60d4 	        movew #2,0x60d4
1204:	6100 35f4      	        bsrw 0x47fa
1208:	4e75           	        rts

;copy area
120a:	6100 25b6      	        bsrw 0x37c2 ;clear stuff
120e:	2078 5f8c      	        moveal 0x5f8c,%a0 ;packet
1212:	2038 5f90      	        movel 0x5f90,%d0 ;modifier
1216:	6100 25ea      	        bsrw 0x3802 ;source (7 words)
121a:	6100 2752      	        bsrw 0x396e ;mask (9 words)
121e:	6100 27c4      	        bsrw 0x39e4 ;destination (7 words)
1222:	6100 27de      	        bsrw 0x3a02 ;function (2 words)
1226:	6100 2876      	        bsrw 0x3a9e ;clipping (2 words)
122a:	6100 248a      	        bsrw 0x36b6 ;const/tile/function
122e:	2078 603a      	        moveal 0x603a,%a0
1232:	3038 603e      	        movew 0x603e,%d0   ;clip count
1236:	6720           	        beqs 0x1258
1238:	5340           	        subqw #1,%d0
123a:	31d8 6040      	        movew %a0@+,0x6040 ;clip x
123e:	31d8 6042      	        movew %a0@+,0x6042 ;clip y
1242:	31d8 6044      	        movew %a0@+,0x6044 ;clip w
1246:	31d8 6046      	        movew %a0@+,0x6046 ;clip h
124a:	6100 28f0      	        bsrw 0x3b3c	 ;do one clip
124e:	6100 415a      	        bsrw 0x53aa
1252:	51c8 ffe6      	        dbf %d0,0x123a
1256:	6004           	        bras 0x125c
1258:	6100 28e2      	        bsrw 0x3b3c	 ;do one clip
125c:	4a38 60e2      	        tstb 0x60e2
1260:	66fa           	        bnes 0x125c
1262:	31fc 0002 60d4 	        movew #2,0x60d4
1268:	6100 3590      	        bsrw 0x47fa
126c:	4e75           	        rts

126e:	0000 18ee      	        orib #-18,%d0

;draw curve
12aa:	6100 2516      	        bsrw 0x37c2
12ae:	2078 5f8c      	        moveal 0x5f8c,%a0
12b2:	2038 5f90      	        movel 0x5f90,%d0 ;modifier
12b6:	51f8 604e      	        sf 0x604e ;flag bba bit 7
12ba:	51f8 605e      	        sf 0x605e
12be:	51f8 605f      	        sf 0x605f
12c2:	4238 5fd4      	        clrb 0x5fd4
12c6:	4278 5fd6      	        clrw 0x5fd6
12ca:	21fc 0000 18ee 126e     movel #6382,0x126e
12d2:	6100 252e      	        bsrw 0x3802 ;process source
12d6:	6100 2696      	        bsrw 0x396e ;process mask
12da:	6100 2708      	        bsrw 0x39e4 ;process destination
12de:	6100 2722      	        bsrw 0x3a02 ;process map
12e2:	6100 27ba      	        bsrw 0x3a9e ;process clipping
12e6:	6100 2824      	        bsrw 0x3b0c ;process segment list
12ea:	6100 06d2      	        bsrw 0x19be ;process draw mode
12ee:	6100 23c6      	        bsrw 0x36b6 ;const/tile/function
12f2:	4a38 604e      	        tstb 0x604e ;flag bba bit 7
12f6:	6712           	        beqs 0x130a
12f8:	6100 06cc      	        bsrw 0x19c6 ;pattern string, state
12fc:	4a38 604e      	        tstb 0x604e ;flag bba bit 7
1300:	6708           	        beqs 0x130a
1302:	6100 07be      	        bsrw 0x1ac2 ;pattern mode
1306:	6100 23d0      	        bsrw 0x36d8
130a:	51f8 1292      	        sf 0x1292
130e:	31f8 6032 60d0 	        movew 0x6032,0x60d0 ;dst x
1314:	31f8 6034 60d2 	        movew 0x6034,0x60d2 ;dst y
131a:	4a38 605f      	        tstb 0x605f
131e:	661e           	        bnes 0x133e
1320:	4a78 5f96      	        tstw 0x5f96 ;bba command
1324:	6618           	        bnes 0x133e
1326:	0c78 0001 6024 	        cmpiw #1,0x6024 ;msk w
132c:	6610           	        bnes 0x133e
132e:	0c78 0001 6026 	        cmpiw #1,0x6026 ;msk h
1334:	6608           	        bnes 0x133e
1336:	50f8 1292      	        st 0x1292
133a:	6100 01a8      	        bsrw 0x14e4
133e:	2078 603a      	        moveal 0x603a,%a0
1342:	3038 603e      	        movew 0x603e,%d0   ;clip count
1346:	671c           	        beqs 0x1364
1348:	5340           	        subqw #1,%d0
134a:	31d8 6040      	        movew %a0@+,0x6040 ;clip x
134e:	31d8 6042      	        movew %a0@+,0x6042 ;clip y
1352:	31d8 6044      	        movew %a0@+,0x6044 ;clip w
1356:	31d8 6046      	        movew %a0@+,0x6046 ;clip h
135a:	6100 0044      	        bsrw 0x13a0        ;do one clip
135e:	51c8 ffea      	        dbf %d0,0x134a
1362:	6004           	        bras 0x1368
1364:	6100 003a      	        bsrw 0x13a0        ;do one clip
1368:	4a38 60e2      	        tstb 0x60e2
136c:	66fa           	        bnes 0x1368
136e:	4a38 605e      	        tstb 0x605e
1372:	6720           	        beqs 0x1394
1374:	2078 605a      	        moveal 0x605a,%a0 ;pattern state address
1378:	4a38 1292      	        tstb 0x1292
137c:	670e           	        beqs 0x138c
137e:	30f9 0030 004a 	        movew 0x30004a,%a0@+
1384:	30b9 0030 004c 	        movew 0x30004c,%a0@
138a:	6008           	        bras 0x1394
138c:	30f8 6056      	        movew 0x6056,%a0@+ ;pattern state position
1390:	30b8 6058      	        movew 0x6058,%a0@ ;pattern state count
1394:	31fc 0002 60d4 	        movew #2,0x60d4
139a:	6100 345e      	        bsrw 0x47fa
139e:	4e75           	        rts

;draw curve - do one clip
13a0:	48e7 f8c0      	        moveml %d0-%d4/%a0-%a1,%sp@-
13a4:	4a38 1292      	        tstb 0x1292
13a8:	670c           	        beqs 0x13b6
13aa:	6100 2390      	        bsrw 0x373c
13ae:	6100 4ad2      	        bsrw 0x5e82       ;restore fb under cursor
13b2:	6100 0172      	        bsrw 0x1526       ;line mask and pattern
13b6:	6100 01cc      	        bsrw 0x1584       ;clear stuff
13ba:	2078 6048      	        moveal 0x6048,%a0 ;segment list address
13be:	2248           	        moveal %a0,%a1
13c0:	51c4           	        sf %d4
13c2:	31f8 1296 1294 	        movew 0x1296,0x1294  ;segment loop starts here
13c8:	31f8 129e 129c 	        movew 0x129e,0x129c
13ce:	31f8 1298 1296 	        movew 0x1298,0x1296
13d4:	31f8 12a0 129e 	        movew 0x12a0,0x129e
13da:	3018           	        movew %a0@+,%d0   ;segment x
13dc:	3218           	        movew %a0@+,%d1   ;segment y
13de:	3418           	        movew %a0@+,%d2   ;segment flags
13e0:	0802 0000      	        btst #0,%d2
13e4:	6708           	        beqs 0x13ee       ;relative vertex?
13e6:	d078 1296      	        addw 0x1296,%d0
13ea:	d278 129e      	        addw 0x129e,%d1
13ee:	31c0 1298      	        movew %d0,0x1298
13f2:	31c1 12a0      	        movew %d1,0x12a0
13f6:	0802 0004      	        btst #4,%d2
13fa:	670a           	        beqs 0x1406
13fc:	4a38 128f      	        tstb 0x128f
1400:	6700 00d4      	        beqw 0x14d6
1404:	c149           	        exg %a0,%a1
1406:	0802 0001      	        btst #1,%d2
140a:	6652           	        bnes 0x145e       ;draw segment?
140c:	4a38 128e      	        tstb 0x128e       ;no
1410:	664c           	        bnes 0x145e
1412:	0802 0005      	        btst #5,%d2       ;draw last point?
1416:	56f8 1291      	        sne 0x1291
141a:	0802 0002      	        btst #2,%d2
141e:	6606           	        bnes 0x1426       ;curved segment?
1420:	6100 0200      	        bsrw 0x1622       ;no, it's straight
1424:	6038           	        bras 0x145e
1426:	4a04           	        tstb %d4          ;curved segment
1428:	6610           	        bnes 0x143a
142a:	3038 1298      	        movew 0x1298,%d0
142e:	3238 12a0      	        movew 0x12a0,%d1
1432:	0c78 0001 12a8 	        cmpiw #1,0x12a8
1438:	6718           	        beqs 0x1452
143a:	3010           	        movew %a0@,%d0
143c:	3228 0002      	        movew %a0@(2),%d1
1440:	3628 0004      	        movew %a0@(4),%d3
1444:	0803 0000      	        btst #0,%d3
1448:	6708           	        beqs 0x1452
144a:	d078 1298      	        addw 0x1298,%d0
144e:	d278 12a0      	        addw 0x12a0,%d1
1452:	31c0 129a      	        movew %d0,0x129a
1456:	31c1 12a2      	        movew %d1,0x12a2
145a:	6100 01f2      	        bsrw 0x164e
145e:	0802 0003      	        btst #3,%d2       ;draw segment
1462:	6720           	        beqs 0x1484       ;start closed?
1464:	4a38 128f      	        tstb 0x128f
1468:	666c           	        bnes 0x14d6
146a:	50c4           	        st %d4
146c:	50f8 128e      	        st 0x128e
1470:	50f8 128f      	        st 0x128f
1474:	31f8 1298 12a4 	        movew 0x1298,0x12a4
147a:	31f8 12a0 12a6 	        movew 0x12a0,0x12a6
1480:	2248           	        moveal %a0,%a1
1482:	6004           	        bras 0x1488
1484:	51f8 128e      	        sf 0x128e
1488:	0802 0004      	        btst #4,%d2
148c:	6724           	        beqs 0x14b2
148e:	4a38 128f      	        tstb 0x128f
1492:	6742           	        beqs 0x14d6
1494:	50f8 1290      	        st 0x1290
1498:	3038 12a4      	        movew 0x12a4,%d0
149c:	b078 1298      	        cmpw 0x1298,%d0
14a0:	6634           	        bnes 0x14d6
14a2:	3238 12a6      	        movew 0x12a6,%d1
14a6:	b278 12a0      	        cmpw 0x12a0,%d1
14aa:	662a           	        bnes 0x14d6
14ac:	5278 12a8      	        addqw #1,0x12a8
14b0:	6010           	        bras 0x14c2
14b2:	4a38 1290      	        tstb 0x1290
14b6:	670a           	        beqs 0x14c2
14b8:	51f8 1290      	        sf 0x1290
14bc:	51f8 128f      	        sf 0x128f
14c0:	c149           	        exg %a0,%a1
14c2:	5378 12a8      	        subqw #1,0x12a8
14c6:	6e00 fefa      	        bgtw 0x13c2   ;loop back for more segments
14ca:	4a38 128f      	        tstb 0x128f
14ce:	6606           	        bnes 0x14d6
14d0:	4cdf 031f      	        moveml %sp@+,%d0-%d4/%a0-%a1
14d4:	4e75           	        rts

14d6:	31fc 8043 60d4 	        movew #-32701,0x60d4
14dc:	6100 331c      	        bsrw 0x47fa
14e0:	6000 fb82      	        braw 0x1064

14e4:	31fc 0040 5f96 	        movew #64,0x5f96 ;bba command
14ea:	4a38 604e      	        tstb 0x604e  ;flag bba bit 7
14ee:	6706           	        beqs 0x14f6
14f0:	0078 0080 5f96 	        oriw #128,0x5f96 ;bba command
14f6:	4a38 60e2      	        tstb 0x60e2
14fa:	66fa           	        bnes 0x14f6
14fc:	33f8 5f96 0030 0000     movew 0x5f96,0x300000 ;bba command
1504:	33f8 5f98 0030 001e     movew 0x5f98,0x30001e ;function
150c:	33f8 6052 0030 0044     movew 0x6052,0x300044 ;pattern string pattern
1514:	33f8 6050 0030 0046     movew 0x6050,0x300046 ;pattern string length
151c:	33f8 6054 0030 0048     movew 0x6054,0x300048 ;pattern string mult
1524:	4e75           	        rts

1526:	48e7 e000      	        moveml %d0-%d2,%sp@-
152a:	3038 36b2      	        movew 0x36b2,%d0 ;y
152e:	c1f8 6036      	        mulsw 0x6036,%d0 ;dst W
1532:	d0b8 6028      	        addl 0x6028,%d0  ;dst address
1536:	3238 36ac      	        movew 0x36ac,%d1
153a:	9278 36a6      	        subw 0x36a6,%d1  ;x
153e:	5241           	        addqw #1,%d1
1540:	3438 36b4      	        movew 0x36b4,%d2
1544:	9478 36b2      	        subw 0x36b2,%d2  ;y
1548:	5242           	        addqw #1,%d2
154a:	c5f8 6036      	        mulsw 0x6036,%d2 ;dst W
154e:	4a38 60e2      	        tstb 0x60e2
1552:	66fa           	        bnes 0x154e
1554:	33f8 36a6 0030 0038     movew 0x36a6,0x300038 ;line msk x
155c:	23c0 0030 003a 	        movel %d0,0x30003a    ;line msk a
1562:	33c1 0030 003e 	        movew %d1,0x30003e    ;line msk W
1568:	23c2 0030 0040 	        movel %d2,0x300040    ;line msk y*W
156e:	33f8 6056 0030 004a     movew 0x6056,0x30004a ;pattern state position
1576:	33f8 6058 0030 004c     movew 0x6058,0x30004c ;pattern state count
157e:	4cdf 0007      	        moveml %sp@+,%d0-%d2
1582:	4e75           	        rts

1584:	48e7 80c0      	        moveml %d0/%a0-%a1,%sp@-
1588:	4278 1274      	        clrw 0x1274
158c:	4278 1276      	        clrw 0x1276
1590:	4278 1278      	        clrw 0x1278
1594:	4278 127a      	        clrw 0x127a
1598:	4278 127c      	        clrw 0x127c ;clear line dx2
159c:	4278 127e      	        clrw 0x127e
15a0:	4278 1280      	        clrw 0x1280 ;clear line dy2
15a4:	4278 1282      	        clrw 0x1282 ;clear line dx1
15a8:	4278 1284      	        clrw 0x1284
15ac:	4278 1286      	        clrw 0x1286 ;clear line dy1
15b0:	4278 1288      	        clrw 0x1288 ;line steps
15b4:	4278 128a      	        clrw 0x128a ;clear line major
15b8:	4278 128c      	        clrw 0x128c ;clear line minor
15bc:	51f8 128e      	        sf 0x128e
15c0:	51f8 128f      	        sf 0x128f
15c4:	51f8 1290      	        sf 0x1290
15c8:	51f8 1291      	        sf 0x1291   ;draw last point?
15cc:	4278 1294      	        clrw 0x1294
15d0:	4278 1296      	        clrw 0x1296
15d4:	4278 1298      	        clrw 0x1298
15d8:	4278 129a      	        clrw 0x129a
15dc:	4278 129c      	        clrw 0x129c
15e0:	4278 129e      	        clrw 0x129e
15e4:	4278 12a0      	        clrw 0x12a0
15e8:	4278 12a2      	        clrw 0x12a2
15ec:	4278 12a4      	        clrw 0x12a4
15f0:	4278 12a6      	        clrw 0x12a6
15f4:	31f8 604c 12a8 	        movew 0x604c,0x12a8 ;segment list count
15fa:	4a38 605f      	        tstb 0x605f
15fe:	671c           	        beqs 0x161c
1600:	303c 0007      	        movew #7,%d0
1604:	207c 0000 5f94 	        moveal #24468,%a0
160a:	227c 0000 5fb4 	        moveal #24500,%a1
1610:	32d8           	        movew %a0@+,%a1@+
1612:	32d8           	        movew %a0@+,%a1@+
1614:	51c8 fffa      	        dbf %d0,0x1610
1618:	4238 1272      	        clrb 0x1272
161c:	4cdf 0301      	        moveml %sp@+,%d0/%a0-%a1
1620:	4e75           	        rts

;straight segment
1622:	31f8 1296 1274 	        movew 0x1296,0x1274
1628:	31f8 129e 1276 	        movew 0x129e,0x1276
162e:	31f8 1298 1278 	        movew 0x1298,0x1278
1634:	31f8 12a0 127a 	        movew 0x12a0,0x127a
163a:	4278 1288      	        clrw 0x1288      ;line steps
163e:	4a38 1291      	        tstb 0x1291
1642:	6704           	        beqs 0x1648      ;draw last point?
1644:	5278 1288      	        addqw #1,0x1288  ;line steps
1648:	6100 011e      	        bsrw 0x1768      ;compute dx,dy
164c:	4e75           	        rts

;curved segment
164e:	48e7 fc80      	        moveml %d0-%d5/%a0,%sp@-
1652:	3038 1298      	        movew 0x1298,%d0
1656:	9078 1296      	        subw 0x1296,%d0
165a:	6900 00f0      	        bvsw 0x174c
165e:	6a02           	        bpls 0x1662
1660:	4440           	        negw %d0
1662:	3238 12a0      	        movew 0x12a0,%d1
1666:	9278 129e      	        subw 0x129e,%d1
166a:	6900 00ee      	        bvsw 0x175a
166e:	6a02           	        bpls 0x1672
1670:	4441           	        negw %d1
1672:	b041           	        cmpw %d1,%d0
1674:	6c02           	        bges 0x1678
1676:	3001           	        movew %d1,%d0
1678:	31f8 1296 1278 	        movew 0x1296,0x1278
167e:	31f8 129e 127a 	        movew 0x129e,0x127a
1684:	0c40 0001      	        cmpiw #1,%d0
1688:	6f00 0092      	        blew 0x171c
168c:	6100 2090      	        bsrw 0x371e
1690:	207c 0000 6170 	        moveal #24944,%a0
1696:	d0c5           	        addaw %d5,%a0
1698:	90fc 0008      	        subaw #8,%a0
169c:	5344           	        subqw #1,%d4
169e:	5344           	        subqw #1,%d4
16a0:	31f8 1278 1274 	        movew 0x1278,0x1274
16a6:	31f8 127a 1276 	        movew 0x127a,0x1276
16ac:	3410           	        movew %a0@,%d2
16ae:	3602           	        movew %d2,%d3
16b0:	c5f8 1294      	        mulsw 0x1294,%d2
16b4:	2002           	        movel %d2,%d0
16b6:	c7f8 129c      	        mulsw 0x129c,%d3
16ba:	2203           	        movel %d3,%d1
16bc:	3428 0002      	        movew %a0@(2),%d2
16c0:	3602           	        movew %d2,%d3
16c2:	c5f8 1296      	        mulsw 0x1296,%d2
16c6:	d082           	        addl %d2,%d0
16c8:	c7f8 129e      	        mulsw 0x129e,%d3
16cc:	d283           	        addl %d3,%d1
16ce:	3428 0004      	        movew %a0@(4),%d2
16d2:	3602           	        movew %d2,%d3
16d4:	c5f8 1298      	        mulsw 0x1298,%d2
16d8:	d082           	        addl %d2,%d0
16da:	c7f8 12a0      	        mulsw 0x12a0,%d3
16de:	d283           	        addl %d3,%d1
16e0:	3428 0006      	        movew %a0@(6),%d2
16e4:	3602           	        movew %d2,%d3
16e6:	c5f8 129a      	        mulsw 0x129a,%d2
16ea:	d082           	        addl %d2,%d0
16ec:	c7f8 12a2      	        mulsw 0x12a2,%d3
16f0:	d283           	        addl %d3,%d1
16f2:	e380           	        asll #1,%d0
16f4:	0680 0000 8000 	        addil #32768,%d0
16fa:	4840           	        swap %d0
16fc:	31c0 1278      	        movew %d0,0x1278
1700:	e381           	        asll #1,%d1
1702:	0681 0000 8000 	        addil #32768,%d1
1708:	4841           	        swap %d1
170a:	31c1 127a      	        movew %d1,0x127a
170e:	4278 1288      	        clrw 0x1288         ;line steps
1712:	6100 0054      	        bsrw 0x1768         ;compute dx,dy
1716:	d0c5           	        addaw %d5,%a0
1718:	51cc ff86      	        dbf %d4,0x16a0
171c:	4278 1288      	        clrw 0x1288         ;line steps
1720:	4a38 1291      	        tstb 0x1291         ;draw last point?
1724:	6704           	        beqs 0x172a
1726:	5278 1288      	        addqw #1,0x1288     ;line steps
172a:	31f8 1278 1274 	        movew 0x1278,0x1274
1730:	31f8 127a 1276 	        movew 0x127a,0x1276
1736:	31f8 1298 1278 	        movew 0x1298,0x1278
173c:	31f8 12a0 127a 	        movew 0x12a0,0x127a
1742:	6100 0024      	        bsrw 0x1768 ;compute dx,dy
1746:	4cdf 013f      	        moveml %sp@+,%d0-%d5/%a0
174a:	4e75           	        rts
174c:	31fc 804d 60d4 	        movew #-32691,0x60d4
1752:	6100 30a6      	        bsrw 0x47fa
1756:	6000 f90c      	        braw 0x1064
175a:	31fc 804e 60d4 	        movew #-32690,0x60d4
1760:	6100 3098      	        bsrw 0x47fa
1764:	6000 f8fe      	        braw 0x1064

;compute dx,dy
1768:	48e7 fec0      	        moveml %d0-%d6/%a0-%a1,%sp@-
176c:	3438 1278      	        movew 0x1278,%d2
1770:	9478 1274      	        subw 0x1274,%d2     ;delta x
1774:	6900 015c      	        bvsw 0x18d2
1778:	6b08           	        bmis 0x1782
177a:	31fc 0001 1282 	        movew #1,0x1282     ;line dx1
1780:	6008           	        bras 0x178a
1782:	31fc ffff 1282 	        movew #-1,0x1282    ;line dx1
1788:	4442           	        negw %d2
178a:	3038 6036      	        movew 0x6036,%d0    ;dst W
178e:	3638 127a      	        movew 0x127a,%d3
1792:	9678 1276      	        subw 0x1276,%d3     ;delta y
1796:	6900 0148      	        bvsw 0x18e0
179a:	6b08           	        bmis 0x17a4
179c:	31fc 0001 1284 	        movew #1,0x1284
17a2:	600a           	        bras 0x17ae
17a4:	31fc ffff 1284 	        movew #-1,0x1284
17aa:	4443           	        negw %d3
17ac:	4440           	        negw %d0
17ae:	31c0 1286      	        movew %d0,0x1286    ;line dy1
17b2:	b443           	        cmpw %d3,%d2        ;delta x > delta y?
17b4:	6d18           	        blts 0x17ce

17b6:	31c2 128a      	        movew %d2,0x128a    ;line major
17ba:	31c3 128c      	        movew %d3,0x128c    ;line minor
17be:	31f8 1282 127c 	        movew 0x1282,0x127c ;line dx1 -> dx2
17c4:	4278 127e      	        clrw 0x127e
17c8:	4278 1280      	        clrw 0x1280         ;line dy2
17cc:	6018           	        bras 0x17e6

17ce:	31c2 128c      	        movew %d2,0x128c    ;line minor
17d2:	31c3 128a      	        movew %d3,0x128a    ;line major
17d6:	4278 127c      	        clrw 0x127c         ;line dx2
17da:	31f8 1284 127e 	        movew 0x1284,0x127e
17e0:	31f8 1286 1280 	        movew 0x1286,0x1280 ;line dy1 -> dy2

17e6:	3c38 1288      	        movew 0x1288,%d6    ;line steps
17ea:	dc78 128a      	        addw 0x128a,%d6     ;line major
17ee:	6700 00d8      	        beqw 0x18c8
17f2:	4a38 1292      	        tstb 0x1292
17f6:	6700 0058      	        beqw 0x1850
17fa:	207c 0030 0026 	        moveal #3145766,%a0
1800:	3038 1274      	        movew 0x1274,%d0
1804:	d078 60d0      	        addw 0x60d0,%d0
1808:	2278 6028      	        moveal 0x6028,%a1 ;dst address
180c:	3238 1276      	        movew 0x1276,%d1
1810:	d278 60d2      	        addw 0x60d2,%d1
1814:	c3f8 6036      	        mulsw 0x6036,%d1 ;dst W
1818:	d3c1           	        addal %d1,%a1
181a:	4a38 60e2      	        tstb 0x60e2
181e:	66fa           	        bnes 0x181a
1820:	33c0 0030 0016 	        movew %d0,0x300016 ;    line dst x
1826:	20c9           	        movel %a1,%a0@+    ;026 line dst a
1828:	30c6           	        movew %d6,%a0@+    ;02a line steps
182a:	30f8 128a      	        movew 0x128a,%a0@+ ;02c line major
182e:	30f8 128c      	        movew 0x128c,%a0@+ ;02e line minor
1832:	30f8 1282      	        movew 0x1282,%a0@+ ;030 line dx1
1836:	30f8 1286      	        movew 0x1286,%a0@+ ;032 line dy1
183a:	30f8 127c      	        movew 0x127c,%a0@+ ;033 line dx2
183e:	30b8 1280      	        movew 0x1280,%a0@  ;036 line dy2
1842:	50f8 60e2      	        st 0x60e2
1846:	13fc 0001 0028 0000     moveb #1,0x280000
184e:	6078           	        bras 0x18c8
1850:	2278 126e      	        moveal 0x126e,%a1
1854:	3838 1274      	        movew 0x1274,%d4
1858:	d878 60d0      	        addw 0x60d0,%d4
185c:	3a38 1276      	        movew 0x1276,%d5
1860:	da78 60d2      	        addw 0x60d2,%d5
1864:	3638 6052      	        movew 0x6052,%d3 ;pattern string pattern
1868:	4e91           	        jsr %a1@
186a:	5346           	        subqw #1,%d6
186c:	5346           	        subqw #1,%d6
186e:	6d58           	        blts 0x18c8
1870:	3438 128a      	        movew 0x128a,%d2   ;line major
1874:	4442           	        negw %d2
1876:	48c2           	        extl %d2
1878:	4280           	        clrl %d0
187a:	4281           	        clrl %d1
187c:	3038 128a      	        movew 0x128a,%d0   ;line major
1880:	3238 128c      	        movew 0x128c,%d1   ;line minor
1884:	e388           	        lsll #1,%d0
1886:	e389           	        lsll #1,%d1
1888:	d481           	        addl %d1,%d2
188a:	4a78 1282      	        tstw 0x1282   ;line dx1
188e:	6d1a           	        blts 0x18aa
1890:	4a82           	        tstl %d2
1892:	6a0a           	        bpls 0x189e
1894:	d878 127c      	        addw 0x127c,%d4   ;line dx2
1898:	da78 127e      	        addw 0x127e,%d5
189c:	6024           	        bras 0x18c2
189e:	9480           	        subl %d0,%d2
18a0:	d878 1282      	        addw 0x1282,%d4   ;line dx1
18a4:	da78 1284      	        addw 0x1284,%d5
18a8:	6018           	        bras 0x18c2
18aa:	4a82           	        tstl %d2
18ac:	6e0a           	        bgts 0x18b8
18ae:	d878 127c      	        addw 0x127c,%d4   ;line dx2
18b2:	da78 127e      	        addw 0x127e,%d5
18b6:	600a           	        bras 0x18c2
18b8:	9480           	        subl %d0,%d2
18ba:	d878 1282      	        addw 0x1282,%d4   ;line dx1
18be:	da78 1284      	        addw 0x1284,%d5
18c2:	4e91           	        jsr %a1@
18c4:	51ce ffc2      	        dbf %d6,0x1888
18c8:	6100 3ae0      	        bsrw 0x53aa
18cc:	4cdf 037f      	        moveml %sp@+,%d0-%d6/%a0-%a1
18d0:	4e75           	        rts
18d2:	31fc 804d 60d4 	        movew #-32691,0x60d4
18d8:	6100 2f20      	        bsrw 0x47fa
18dc:	6000 f786      	        braw 0x1064
18e0:	31fc 804e 60d4 	        movew #-32690,0x60d4
18e6:	6100 2f12      	        bsrw 0x47fa
18ea:	6000 f778      	        braw 0x1064

18ee:	48e7 e000      	        moveml %d0-%d2,%sp@-
18f2:	4a38 604e      	        tstb 0x604e  ;flag bba bit 7
18f6:	672c           	        beqs 0x1924
18f8:	3038 6056      	        movew 0x6056,%d0 ;pattern state position
18fc:	3238 6058      	        movew 0x6058,%d1 ;pattern state count
1900:	0103           	        btst %d0,%d3
1902:	56c2           	        sne %d2
1904:	5241           	        addqw #1,%d1
1906:	b278 6054      	        cmpw 0x6054,%d1 ;pattern string multiplier
190a:	6d0c           	        blts 0x1918
190c:	4241           	        clrw %d1
190e:	5240           	        addqw #1,%d0
1910:	b078 6050      	        cmpw 0x6050,%d0  ;pattern string length
1914:	6d02           	        blts 0x1918
1916:	4240           	        clrw %d0
1918:	31c0 6056      	        movew %d0,0x6056 ;pattern state position
191c:	31c1 6058      	        movew %d1,0x6058 ;pattern state count
1920:	4a02           	        tstb %d2
1922:	670c           	        beqs 0x1930
1924:	31c4 6032      	        movew %d4,0x6032 ;dst x
1928:	31c5 6034      	        movew %d5,0x6034 ;dst y
192c:	6100 220e      	        bsrw 0x3b3c	 ;do one clip
1930:	4cdf 0007      	        moveml %sp@+,%d0-%d2
1934:	4e75           	        rts
1936:	48e7 e0c0      	        moveml %d0-%d2/%a0-%a1,%sp@-
193a:	3038 6056      	        movew 0x6056,%d0 ;pattern state position
193e:	3238 6058      	        movew 0x6058,%d1 ;pattern state count
1942:	0103           	        btst %d0,%d3
1944:	56c2           	        sne %d2
1946:	5241           	        addqw #1,%d1
1948:	b278 6054      	        cmpw 0x6054,%d1 ;pattern string multiplier
194c:	6d0c           	        blts 0x195a
194e:	4241           	        clrw %d1
1950:	5240           	        addqw #1,%d0
1952:	b078 6050      	        cmpw 0x6050,%d0 ;pattern string length
1956:	6d02           	        blts 0x195a
1958:	4240           	        clrw %d0
195a:	31c0 6056      	        movew %d0,0x6056 ;pattern state position
195e:	31c1 6058      	        movew %d1,0x6058 ;pattern state count
1962:	4a02           	        tstb %d2
1964:	6724           	        beqs 0x198a
1966:	4a38 1272      	        tstb 0x1272
196a:	6740           	        beqs 0x19ac
196c:	303c 0007      	        movew #7,%d0
1970:	207c 0000 5fb4 	        moveal #24500,%a0
1976:	227c 0000 5f94 	        moveal #24468,%a1
197c:	32d8           	        movew %a0@+,%a1@+
197e:	32d8           	        movew %a0@+,%a1@+
1980:	51c8 fffa      	        dbf %d0,0x197c
1984:	51f8 1272      	        sf 0x1272
1988:	6022           	        bras 0x19ac
198a:	4a38 1272      	        tstb 0x1272
198e:	661c           	        bnes 0x19ac
1990:	303c 0007      	        movew #7,%d0
1994:	207c 0000 5fd4 	        moveal #24532,%a0
199a:	227c 0000 5f94 	        moveal #24468,%a1
19a0:	32d8           	        movew %a0@+,%a1@+
19a2:	32d8           	        movew %a0@+,%a1@+
19a4:	51c8 fffa      	        dbf %d0,0x19a0
19a8:	50f8 1272      	        st 0x1272
19ac:	31c4 6032      	        movew %d4,0x6032 ;dst x
19b0:	31c5 6034      	        movew %d5,0x6034 ;dst y
19b4:	6100 2186      	        bsrw 0x3b3c	 ;do one clip
19b8:	4cdf 0307      	        moveml %sp@+,%d0-%d2/%a0-%a1
19bc:	4e75           	        rts

;process draw mode
19be:	e288           	        lsrl #1,%d0 ;solid or pattern
19c0:	55f8 604e      	        scs 0x604e  ;flag bba bit 7
19c4:	4e75           	        rts

;process pattern string, state
19c6:	3218           	        movew %a0@+,%d1 ;pattern string length
19c8:	56f8 604e      	        sne 0x604e ;flag bba bit 7
19cc:	6b34           	        bmis 0x1a02
19ce:	0c41 0010      	        cmpiw #16,%d1
19d2:	6e2e           	        bgts 0x1a02
19d4:	31c1 6050      	        movew %d1,0x6050 ;pattern string length
19d8:	31d8 6052      	        movew %a0@+,0x6052 ;pattern string pattern
19dc:	3418           	        movew %a0@+,%d2 ;pattern string multiplier
19de:	6f30           	        bles 0x1a10
19e0:	31c2 6054      	        movew %d2,0x6054
19e4:	2600           	        movel %d0,%d3
19e6:	e488           	        lsrl #2,%d0
19e8:	0243 0003      	        andiw #3,%d3 ;pattern state
19ec:	e54b           	        lslw #2,%d3
19ee:	0c43 0010      	        cmpiw #16,%d3
19f2:	642a           	        bccs 0x1a1e
19f4:	227c 0000 1a2c 	        moveal #6700,%a1
19fa:	2271 3000      	        moveal %a1@(0,%d3:w),%a1
19fe:	4e91           	        jsr %a1@
1a00:	4e75           	        rts
1a02:	31fc 8041 60d4 	        movew #-32703,0x60d4
1a08:	6100 2df0      	        bsrw 0x47fa
1a0c:	6000 f656      	        braw 0x1064
1a10:	31fc 8042 60d4 	        movew #-32702,0x60d4
1a16:	6100 2de2      	        bsrw 0x47fa
1a1a:	6000 f648      	        braw 0x1064
1a1e:	31fc 8045 60d4 	        movew #-32699,0x60d4
1a24:	6100 2dd4      	        bsrw 0x47fa
1a28:	6000 f63a      	        braw 0x1064

1a2c:	0000 1a3c
1a30:	0000 1a72
1a34:	0000 1aae
1a38:	0000 1ab8

;pattern state 0
1a3c:	21c8 605a      	        movel %a0,0x605a
1a40:	3618           	        movew %a0@+,%d3 ;pattern state position
1a42:	b641           	        cmpw %d1,%d3
1a44:	6410           	        bccs 0x1a56
1a46:	31c3 6056      	        movew %d3,0x6056
1a4a:	3618           	        movew %a0@+,%d3 ;pattern state count
1a4c:	b642           	        cmpw %d2,%d3
1a4e:	6214           	        bhis 0x1a64
1a50:	31c3 6058      	        movew %d3,0x6058 ;pattern state count
1a54:	4e75           	        rts
1a56:	31fc 8044 60d4 	        movew #-32700,0x60d4
1a5c:	6100 2d9c      	        bsrw 0x47fa
1a60:	6000 f602      	        braw 0x1064
1a64:	31fc 8047 60d4 	        movew #-32697,0x60d4
1a6a:	6100 2d8e      	        bsrw 0x47fa
1a6e:	6000 f5f4      	        braw 0x1064

;pattern state 1
1a72:	2618           	        movel %a0@+,%d3
1a74:	4843           	        swap %d3
1a76:	2243           	        moveal %d3,%a1
1a78:	21c9 605a      	        movel %a1,0x605a
1a7c:	3619           	        movew %a1@+,%d3
1a7e:	b641           	        cmpw %d1,%d3
1a80:	6410           	        bccs 0x1a92
1a82:	31c3 6056      	        movew %d3,0x6056
1a86:	3619           	        movew %a1@+,%d3
1a88:	b642           	        cmpw %d2,%d3
1a8a:	6214           	        bhis 0x1aa0
1a8c:	31c3 6058      	        movew %d3,0x6058 ;pattern state count
1a90:	4e75           	        rts
1a92:	31fc 8044 60d4 	        movew #-32700,0x60d4
1a98:	6100 2d60      	        bsrw 0x47fa
1a9c:	6000 f5c6      	        braw 0x1064
1aa0:	31fc 8047 60d4 	        movew #-32697,0x60d4
1aa6:	6100 2d52      	        bsrw 0x47fa
1aaa:	6000 f5b8      	        braw 0x1064

;pattern state 2
1aae:	50f8 605e      	        st 0x605e
1ab2:	6100 ff88      	        bsrw 0x1a3c
1ab6:	4e75           	        rts

;pattern state 3
1ab8:	50f8 605e      	        st 0x605e
1abc:	6100 ffb4      	        bsrw 0x1a72
1ac0:	4e75           	        rts

1ac2:	2200           	        movel %d0,%d1
1ac4:	e488           	        lsrl #2,%d0
1ac6:	0241 0003      	        andiw #3,%d1 ;pattern mode
1aca:	e549           	        lslw #2,%d1
1acc:	0c41 0010      	        cmpiw #16,%d1
1ad0:	640e           	        bccs 0x1ae0
1ad2:	227c 0000 1aee 	        moveal #6894,%a1
1ad8:	2271 1000      	        moveal %a1@(0,%d1:w),%a1
1adc:	4e91           	        jsr %a1@
1ade:	4e75           	        rts
1ae0:	31fc 8046 60d4 	        movew #-32698,0x60d4
1ae6:	6100 2d12      	        bsrw 0x47fa
1aea:	6000 f578      	        braw 0x1064

1aee:	0000 1afe      	        orib #-2,%d0
1af2:	0000 1b04      	        orib #4,%d0
1af6:	0000 1b42      	        orib #66,%d0
1afa:	0000 1b76      	        orib #118,%d0

;pattern mode 0
1afe:	d0fc 000e      	        addaw #14,%a0
1b02:	4e75           	        rts

;pattern mode 1
1b04:	50f8 605f      	        st 0x605f
1b08:	08f8 0000 5fd4 	        bset #0,0x5fd4
1b0e:	21fc 0000 1936 126e     movel #6454,0x126e
1b16:	3218           	        movew %a0@+,%d1
1b18:	6b1a           	        bmis 0x1b34
1b1a:	e349           	        lslw #1,%d1
1b1c:	0c41 0004      	        cmpiw #4,%d1
1b20:	6412           	        bccs 0x1b34
1b22:	227c 0000 386c 	        moveal #14444,%a1
1b28:	31f1 1000 5fda 	        movew %a1@(0,%d1:w),0x5fda
1b2e:	d0fc 000c      	        addaw #12,%a0
1b32:	4e75           	        rts
1b34:	31fc 804b 60d4 	        movew #-32693,0x60d4
1b3a:	6100 2cbe      	        bsrw 0x47fa
1b3e:	6000 f524      	        braw 0x1064

;pattern mode 2
1b42:	50f8 605f      	        st 0x605f
1b46:	08f8 0001 5fd4 	        bset #1,0x5fd4
1b4c:	0078 0001 5fd6 	        oriw #1,0x5fd6
1b52:	21fc 0000 1936 126e     movel #6454,0x126e
1b5a:	227c 0000 1b70 	        moveal #7024,%a1
1b60:	6100 1d36      	        bsrw 0x3898
1b64:	21ca 5fdc      	        movel %a2,0x5fdc
1b68:	48b8 007e 5fe0 	        movemw %d1-%d6,0x5fe0
1b6e:	4e75           	        rts

1b70:	8048           	        .short 0x8048
1b72:	8049           	        .short 0x8049
1b74:	804a           	        .short 0x804a

;pattern mode 3
1b76:	50f8 605f      	        st 0x605f
1b7a:	08f8 0002 5fd4 	        bset #2,0x5fd4
1b80:	0078 0010 5fd6 	        oriw #16,0x5fd6
1b86:	21fc 0000 1936 126e     movel #6454,0x126e
1b8e:	227c 0000 1bb8 	        moveal #7096,%a1
1b94:	6100 1d8e      	        bsrw 0x3924
1b98:	31c1 5fec      	        movew %d1,0x5fec
1b9c:	31c2 5fee      	        movew %d2,0x5fee
1ba0:	227c 0000 6060 	        moveal #24672,%a1
1ba6:	21c9 5ff0      	        movel %a1,0x5ff0
1baa:	323c 000f      	        movew #15,%d1
1bae:	361a           	        movew %a2@+,%d3
1bb0:	32c3           	        movew %d3,%a1@+
1bb2:	51c9 fffa      	        dbf %d1,0x1bae
1bb6:	4e75           	        rts

1bb8:	80a4           	        orl %a4@-,%d0
1bba:	80a5           	        orl %a5@-,%d0
1bbc:	80a6           	        orl %fp@-,%d0

1bbe:	0000 1ea0      	        orib #-96,%d0

;print text
1bc2:	6100 1bfe      	        bsrw 0x37c2
1bc6:	2078 5f8c      	        moveal 0x5f8c,%a0
1bca:	2038 5f90      	        movel 0x5f90,%d0  ;modifier
1bce:	6100 062a      	        bsrw 0x21fa ;process source
1bd2:	6100 06dc      	        bsrw 0x22b0 ;process mask
1bd6:	6100 0808      	        bsrw 0x23e0 ;process destination
1bda:	6100 1e26      	        bsrw 0x3a02 ;process map
1bde:	6100 1ebe      	        bsrw 0x3a9e ;process clipping
1be2:	6100 08da      	        bsrw 0x24be ;process text size
1be6:	6100 08fa      	        bsrw 0x24e2 ;process control string
1bea:	6100 1aca      	        bsrw 0x36b6 ;const/tile/function
1bee:	6100 005c      	        bsrw 0x1c4c
1bf2:	2078 603a      	        moveal 0x603a,%a0
1bf6:	3038 603e      	        movew 0x603e,%d0   ;clip count
1bfa:	6728           	        beqs 0x1c24
1bfc:	5340           	        subqw #1,%d0
1bfe:	31f8 60d0 6032 	        movew 0x60d0,0x6032 ;dst x
1c04:	31f8 60d2 6034 	        movew 0x60d2,0x6034 ;dst y
1c0a:	31d8 6040      	        movew %a0@+,0x6040 ;clip x
1c0e:	31d8 6042      	        movew %a0@+,0x6042 ;clip y
1c12:	31d8 6044      	        movew %a0@+,0x6044 ;clip w
1c16:	31d8 6046      	        movew %a0@+,0x6046 ;clip h
1c1a:	6100 00d0      	        bsrw 0x1cec     ;process one clip
1c1e:	51c8 ffde      	        dbf %d0,0x1bfe
1c22:	6004           	        bras 0x1c28
1c24:	6100 00c6      	        bsrw 0x1cec     ;process one clip
1c28:	4a38 60e2      	        tstb 0x60e2
1c2c:	66fa           	        bnes 0x1c28
1c2e:	4a38 6090      	        tstb 0x6090
1c32:	670c           	        beqs 0x1c40
1c34:	2078 608c      	        moveal 0x608c,%a0
1c38:	30f8 6032      	        movew 0x6032,%a0@+ ;dst x
1c3c:	30b8 6034      	        movew 0x6034,%a0@  ;dst y
1c40:	31fc 0002 60d4 	        movew #2,0x60d4
1c46:	6100 2bb2      	        bsrw 0x47fa
1c4a:	4e75           	        rts

1c4c:	4278 5fa8      	        clrw 0x5fa8         ;src y
1c50:	21f8 5f9c 3b2a 	        movel 0x5f9c,0x3b2a ;src address
1c56:	4278 6020      	        clrw 0x6020         ;msk y
1c5a:	21f8 6014 3b2e 	        movel 0x6014,0x3b2e ;msk address
1c60:	31f8 6032 60d0 	        movew 0x6032,0x60d0 ;dst x
1c66:	31f8 6034 60d2 	        movew 0x6034,0x60d2 ;dst y
1c6c:	4a38 60e2      	        tstb 0x60e2
1c70:	66fa           	        bnes 0x1c6c
1c72:	33f8 5f96 0030 0000     movew 0x5f96,0x300000 ;bba command
1c7a:	23f8 3b2a 0030 0002     movel 0x3b2a,0x300002 ;address
1c82:	33f8 5faa 0030 0008     movew 0x5faa,0x300008 ;src w
1c8a:	23f8 3b2e 0030 000a     movel 0x3b2e,0x30000a ;msk address
1c92:	33f8 6022 0030 0010     movew 0x6022,0x300010 ;msk w
1c9a:	33f8 6026 0030 001c     movew 0x6026,0x30001c ;msk h
1ca2:	33f8 6036 0030 0018     movew 0x6036,0x300018 ;dst W
1caa:	33f8 5f98 0030 001e     movew 0x5f98,0x30001e ;function
1cb2:	23f8 5fb0 0030 0020     movel 0x5fb0,0x300020 ;tile a
1cba:	4e75           	        rts

1cbc:	4a38 60e2      	        tstb 0x60e2
1cc0:	66fa           	        bnes 0x1cbc
1cc2:	23f8 3b2a 0030 0002     movel 0x3b2a,0x300002 ;src address
1cca:	23f8 3b2e 0030 000a     movel 0x3b2e,0x30000a ;msk address
1cd2:	23f8 3b32 0030 0012     movel 0x3b32,0x300012 ;dst address
1cda:	33f8 6026 0030 001c     movew 0x6026,0x30001c ;msk h
1ce2:	33f8 6034 0030 0024     movew 0x6034,0x300024 ;dst y
1cea:	4e75           	        rts

;print text - process one clip
1cec:	48e7 e0e0      	        moveml %d0-%d2/%a0-%a2,%sp@-
1cf0:	6100 1a4a      	        bsrw 0x373c
1cf4:	6100 418c      	        bsrw 0x5e82
1cf8:	5278 36ac      	        addqw #1,0x36ac
1cfc:	5278 36b4      	        addqw #1,0x36b4
1d00:	21f8 6028 3b32 	        movel 0x6028,0x3b32 ;dst address
1d06:	3038 6034      	        movew 0x6034,%d0  ;dst y
1d0a:	c1f8 6036      	        mulsw 0x6036,%d0  ;dst W
1d0e:	d1b8 3b32      	        addl %d0,0x3b32 ;dst address
1d12:	4a38 60e2      	        tstb 0x60e2
1d16:	66fa           	        bnes 0x1d12
1d18:	23f8 3b32 0030 0012     movel 0x3b32,0x300012 ;dst address
1d20:	33f8 6034 0030 0024     movew 0x6034,0x300024 ;dst y
1d28:	2078 6092      	        moveal 0x6092,%a0
1d2c:	3238 6096      	        movew 0x6096,%d1
1d30:	3438 609c      	        movew 0x609c,%d2
1d34:	6722           	        beqs 0x1d58
1d36:	5342           	        subqw #1,%d2
1d38:	2278 6098      	        moveal 0x6098,%a1
1d3c:	3019           	        movew %a1@+,%d0
1d3e:	e548           	        lslw #2,%d0
1d40:	0c40 0010      	        cmpiw #16,%d0
1d44:	641e           	        bccs 0x1d64
1d46:	247c 0000 1d72 	        moveal #7538,%a2
1d4c:	2472 0000      	        moveal %a2@(0,%d0:w),%a2
1d50:	4e92           	        jsr %a2@
1d52:	51ca ffe8      	        dbf %d2,0x1d3c
1d56:	6006           	        bras 0x1d5e
1d58:	3001           	        movew %d1,%d0
1d5a:	6100 00f4      	        bsrw 0x1e50 ;
1d5e:	4cdf 0707      	        moveml %sp@+,%d0-%d2/%a0-%a2
1d62:	4e75           	        rts
1d64:	31fc 8051 60d4 	        movew #-32687,0x60d4
1d6a:	6100 2a8e      	        bsrw 0x47fa
1d6e:	6000 f2f4      	        braw 0x1064

1d72:	0000 1d82      	        orib #-126,%d0
1d76:	0000 1dc6      	        orib #-58,%d0
1d7a:	0000 1dd2      	        orib #-46,%d0
1d7e:	0000 1e0e      	        orib #14,%d0

1d82:	3019           	        movew %a1@+,%d0
1d84:	6b10           	        bmis 0x1d96
1d86:	b240           	        cmpw %d0,%d1
1d88:	6d1a           	        blts 0x1da4
1d8a:	6100 00c4      	        bsrw 0x1e50 ;
1d8e:	9240           	        subw %d0,%d1
1d90:	5342           	        subqw #1,%d2
1d92:	6b24           	        bmis 0x1db8
1d94:	4e75           	        rts
1d96:	31fc 8052 60d4 	        movew #-32686,0x60d4
1d9c:	6100 2a5c      	        bsrw 0x47fa
1da0:	6000 f2c2      	        braw 0x1064
1da4:	3001           	        movew %d1,%d0
1da6:	6100 00a8      	        bsrw 0x1e50 ;
1daa:	31fc 8055 60d4 	        movew #-32683,0x60d4
1db0:	6100 2a48      	        bsrw 0x47fa
1db4:	6000 f2ae      	        braw 0x1064
1db8:	31fc 8050 60d4 	        movew #-32688,0x60d4
1dbe:	6100 2a3a      	        bsrw 0x47fa
1dc2:	6000 f2a0      	        braw 0x1064

1dc6:	3001           	        movew %d1,%d0
1dc8:	6f06           	        bles 0x1dd0
1dca:	6100 0084      	        bsrw 0x1e50 ;
1dce:	4241           	        clrw %d1
1dd0:	4e75           	        rts

1dd2:	3019           	        movew %a1@+,%d0
1dd4:	6b0e           	        bmis 0x1de4
1dd6:	6706           	        beqs 0x1dde
1dd8:	d0c0           	        addaw %d0,%a0
1dda:	9240           	        subw %d0,%d1
1ddc:	6d14           	        blts 0x1df2
1dde:	5342           	        subqw #1,%d2
1de0:	6b1e           	        bmis 0x1e00
1de2:	4e75           	        rts
1de4:	31fc 8052 60d4 	        movew #-32686,0x60d4
1dea:	6100 2a0e      	        bsrw 0x47fa
1dee:	6000 f274      	        braw 0x1064
1df2:	31fc 8055 60d4 	        movew #-32683,0x60d4
1df8:	6100 2a00      	        bsrw 0x47fa
1dfc:	6000 f266      	        braw 0x1064
1e00:	31fc 8050 60d4 	        movew #-32688,0x60d4
1e06:	6100 29f2      	        bsrw 0x47fa
1e0a:	6000 f258      	        braw 0x1064

1e0e:	3019           	        movew %a1@+,%d0
1e10:	d178 6032      	        addw %d0,0x6032 ;dst x
1e14:	3019           	        movew %a1@+,%d0
1e16:	d178 6034      	        addw %d0,0x6034 ;dst y
1e1a:	5542           	        subqw #2,%d2
1e1c:	6b24           	        bmis 0x1e42
1e1e:	4a40           	        tstw %d0
1e20:	671e           	        beqs 0x1e40
1e22:	c1f8 6036      	        mulsw 0x6036,%d0 ;dst W
1e26:	d1b8 3b32      	        addl %d0,0x3b32 ;dst address
1e2a:	4a38 60e2      	        tstb 0x60e2
1e2e:	66fa           	        bnes 0x1e2a
1e30:	23f8 3b32 0030 0012     movel 0x3b32,0x300012 ;dst address
1e38:	33f8 6034 0030 0024     movew 0x6034,0x300024 ;dst y
1e40:	4e75           	        rts
1e42:	31fc 8050 60d4 	        movew #-32688,0x60d4
1e48:	6100 29b0      	        bsrw 0x47fa
1e4c:	6000 f216      	        braw 0x1064

1e50:	48e7 e040      	        moveml %d0-%d2/%a1,%sp@-
1e54:	5340           	        subqw #1,%d0
1e56:	6b42           	        bmis 0x1e9a
1e58:	2278 1bbe      	        moveal 0x1bbe,%a1
1e5c:	4a38 6091      	        tstb 0x6091
1e60:	662c           	        bnes 0x1e8e
1e62:	4241           	        clrw %d1
1e64:	2408           	        movel %a0,%d2
1e66:	0802 0000      	        btst #0,%d2
1e6a:	6708           	        beqs 0x1e74
1e6c:	3428 ffff      	        movew %a0@(-1),%d2
1e70:	5248           	        addqw #1,%a0
1e72:	600a           	        bras 0x1e7e
1e74:	3418           	        movew %a0@+,%d2
1e76:	1202           	        moveb %d2,%d1
1e78:	4e91           	        jsr %a1@
1e7a:	5340           	        subqw #1,%d0
1e7c:	6b0c           	        bmis 0x1e8a
1e7e:	e04a           	        lsrw #8,%d2
1e80:	1202           	        moveb %d2,%d1
1e82:	4e91           	        jsr %a1@
1e84:	51c8 ffee      	        dbf %d0,0x1e74
1e88:	600c           	        bras 0x1e96
1e8a:	5348           	        subqw #1,%a0
1e8c:	6008           	        bras 0x1e96
1e8e:	3218           	        movew %a0@+,%d1
1e90:	4e91           	        jsr %a1@
1e92:	51c8 fffa      	        dbf %d0,0x1e8e
1e96:	6100 3512      	        bsrw 0x53aa
1e9a:	4cdf 0207      	        moveml %sp@+,%d0-%d2/%a1
1e9e:	4e75           	        rts

1ea0:	48e7 fe80      	        moveml %d0-%d6/%a0,%sp@-
1ea4:	4280           	        clrl %d0
1ea6:	3638 6034      	        movew 0x6034,%d3
1eaa:	3803           	        movew %d3,%d4
1eac:	d878 6026      	        addw 0x6026,%d4 ;msk h
1eb0:	3a38 6032      	        movew 0x6032,%d5 ;dst x
1eb4:	3c05           	        movew %d5,%d6
1eb6:	3001           	        movew %d1,%d0
1eb8:	9078 6080      	        subw 0x6080,%d0
1ebc:	6d00 009c      	        bltw 0x1f5a
1ec0:	b078 6082      	        cmpw 0x6082,%d0
1ec4:	6e00 0094      	        bgtw 0x1f5a
1ec8:	2078 6084      	        moveal 0x6084,%a0
1ecc:	e348           	        lslw #1,%d0
1ece:	d1c0           	        addal %d0,%a0
1ed0:	4a38 60e2      	        tstb 0x60e2
1ed4:	66fa           	        bnes 0x1ed0
1ed6:	3018           	        movew %a0@+,%d0
1ed8:	6b00 008e      	        bmiw 0x1f68
1edc:	3410           	        movew %a0@,%d2
1ede:	9440           	        subw %d0,%d2
1ee0:	6d00 0086      	        bltw 0x1f68
1ee4:	6758           	        beqs 0x1f3e
1ee6:	dc42           	        addw %d2,%d6
1ee8:	6900 008c      	        bvsw 0x1f76
1eec:	b678 36b2      	        cmpw 0x36b2,%d3
1ef0:	6d38           	        blts 0x1f2a
1ef2:	b878 36b4      	        cmpw 0x36b4,%d4
1ef6:	6e32           	        bgts 0x1f2a
1ef8:	ba78 36a6      	        cmpw 0x36a6,%d5
1efc:	6d2c           	        blts 0x1f2a
1efe:	bc78 36ac      	        cmpw 0x36ac,%d6
1f02:	6e26           	        bgts 0x1f2a
1f04:	33c0 0030 0006 	        movew %d0,0x300006
1f0a:	33c0 0030 000e 	        movew %d0,0x30000e
1f10:	33c5 0030 0016 	        movew %d5,0x300016
1f16:	33c2 0030 001a 	        movew %d2,0x30001a ;msk w
1f1c:	50f8 60e2      	        st 0x60e2
1f20:	13fc 0001 0028 0000     moveb #1,0x280000
1f28:	6014           	        bras 0x1f3e
1f2a:	31c0 5fa6      	        movew %d0,0x5fa6 ;src x
1f2e:	31c0 601e      	        movew %d0,0x601e ;msk x
1f32:	31c2 6024      	        movew %d2,0x6024
1f36:	6100 011a      	        bsrw 0x2052
1f3a:	6100 fd80      	        bsrw 0x1cbc
1f3e:	b278 6088      	        cmpw 0x6088,%d1
1f42:	6606           	        bnes 0x1f4a
1f44:	dc78 60a0      	        addw 0x60a0,%d6
1f48:	692c           	        bvss 0x1f76
1f4a:	dc78 609e      	        addw 0x609e,%d6
1f4e:	6926           	        bvss 0x1f76
1f50:	31c6 6032      	        movew %d6,0x6032 ;dst x
1f54:	4cdf 017f      	        moveml %sp@+,%d0-%d6/%a0
1f58:	4e75           	        rts
1f5a:	31fc 8054 60d4 	        movew #-32684,0x60d4
1f60:	6100 2898      	        bsrw 0x47fa
1f64:	6000 f0fe      	        braw 0x1064
1f68:	31fc 805f 60d4 	        movew #-32673,0x60d4
1f6e:	6100 288a      	        bsrw 0x47fa
1f72:	6000 f0f0      	        braw 0x1064
1f76:	31fc 80ad 60d4 	        movew #-32595,0x60d4
1f7c:	6100 287c      	        bsrw 0x47fa
1f80:	6000 f0e2      	        braw 0x1064

1f84:	48e7 fc80      	        moveml %d0-%d5/%a0,%sp@-
1f88:	3438 608a      	        movew 0x608a,%d2
1f8c:	3638 6032      	        movew 0x6032,%d3 ;dst x
1f90:	3803           	        movew %d3,%d4
1f92:	d842           	        addw %d2,%d4
1f94:	6900 00ae      	        bvsw 0x2044
1f98:	3001           	        movew %d1,%d0
1f9a:	9078 6080      	        subw 0x6080,%d0
1f9e:	6d00 0096      	        bltw 0x2036
1fa2:	b078 6082      	        cmpw 0x6082,%d0
1fa6:	6e00 008e      	        bgtw 0x2036
1faa:	c1c2           	        mulsw %d2,%d0
1fac:	4a40           	        tstw %d0
1fae:	6b00 0086      	        bmiw 0x2036
1fb2:	2a00           	        movel %d0,%d5
1fb4:	4845           	        swap %d5
1fb6:	4a45           	        tstw %d5
1fb8:	667c           	        bnes 0x2036
1fba:	3a38 6034      	        movew 0x6034,%d5
1fbe:	ba78 36b2      	        cmpw 0x36b2,%d5
1fc2:	6d42           	        blts 0x2006
1fc4:	da78 6026      	        addw 0x6026,%d5 ;msk h
1fc8:	ba78 36b4      	        cmpw 0x36b4,%d5
1fcc:	6e38           	        bgts 0x2006
1fce:	b678 36a6      	        cmpw 0x36a6,%d3
1fd2:	6d32           	        blts 0x2006
1fd4:	b878 36ac      	        cmpw 0x36ac,%d4
1fd8:	6e2c           	        bgts 0x2006
1fda:	4a38 60e2      	        tstb 0x60e2
1fde:	66fa           	        bnes 0x1fda
1fe0:	33c0 0030 0006 	        movew %d0,0x300006 ;src x
1fe6:	33c0 0030 000e 	        movew %d0,0x30000e ;msk x
1fec:	33c3 0030 0016 	        movew %d3,0x300016 ;dst x
1ff2:	33c2 0030 001a 	        movew %d2,0x30001a ;msk w
1ff8:	50f8 60e2      	        st 0x60e2
1ffc:	13fc 0001 0028 0000     moveb #1,0x280000
2004:	6014           	        bras 0x201a
2006:	31c0 5fa6      	        movew %d0,0x5fa6 ;src x
200a:	31c0 601e      	        movew %d0,0x601e ;msk x
200e:	31c2 6024      	        movew %d2,0x6024
2012:	6100 003e      	        bsrw 0x2052
2016:	6100 fca4      	        bsrw 0x1cbc
201a:	b278 6088      	        cmpw 0x6088,%d1
201e:	6606           	        bnes 0x2026
2020:	d878 60a0      	        addw 0x60a0,%d4
2024:	691e           	        bvss 0x2044
2026:	d878 609e      	        addw 0x609e,%d4
202a:	6918           	        bvss 0x2044
202c:	31c4 6032      	        movew %d4,0x6032 ;dst x
2030:	4cdf 013f      	        moveml %sp@+,%d0-%d5/%a0
2034:	4e75           	        rts
2036:	31fc 8054 60d4 	        movew #-32684,0x60d4
203c:	6100 27bc      	        bsrw 0x47fa
2040:	6000 f022      	        braw 0x1064
2044:	31fc 80ad 60d4 	        movew #-32595,0x60d4
204a:	6100 27ae      	        bsrw 0x47fa
204e:	6000 f014      	        braw 0x1064

2052:	3f38 5f96      	        movew 0x5f96,%sp@- ;bba command
2056:	2f38 3b2a      	        movel 0x3b2a,%sp@- ;address
205a:	3f38 5fa6      	        movew 0x5fa6,%sp@- ;src x
205e:	3f38 5fa8      	        movew 0x5fa8,%sp@- ;src y
2062:	2f38 3b2e      	        movel 0x3b2e,%sp@- ;msk address
2066:	3f38 601e      	        movew 0x601e,%sp@- ;msk x
206a:	3f38 6020      	        movew 0x6020,%sp@- ;msk y
206e:	2f38 3b32      	        movel 0x3b32,%sp@- ;dst address
2072:	3f38 6032      	        movew 0x6032,%sp@- ;dst x
2076:	3f38 6034      	        movew 0x6034,%sp@- ;dst y
207a:	51f8 3b3a      	        sf 0x3b3a        ;flag
207e:	6100 004e      	        bsrw 0x20ce
2082:	4a38 3b3a      	        tstb 0x3b3a
2086:	661c           	        bnes 0x20a4      ;skip all this?
2088:	4a78 3b36      	        tstw 0x3b36      ;msk w
208c:	6f16           	        bles 0x20a4      ;skip?
208e:	4a78 3b38      	        tstw 0x3b38      ;msk h
2092:	6f10           	        bles 0x20a4      ;skip?
2094:	6100 3e36      	        bsrw 0x5ecc
2098:	6100 1c80      	        bsrw 0x3d1a
209c:	6100 1cdc      	        bsrw 0x3d7a      ;compute ending addresses
20a0:	6100 1d18      	        bsrw 0x3dba      ;write to bba scratchpad
20a4:	31df 6034      	        movew %sp@+,0x6034 ;dst y
20a8:	31df 6032      	        movew %sp@+,0x6032 ;dst x
20ac:	21df 3b32      	        movel %sp@+,0x3b32 ;dst address
20b0:	31df 6020      	        movew %sp@+,0x6020 ;msk y
20b4:	31df 601e      	        movew %sp@+,0x601e ;msk x
20b8:	21df 3b2e      	        movel %sp@+,0x3b2e ;msk a
20bc:	31df 5fa8      	        movew %sp@+,0x5fa8 ;src y
20c0:	31df 5fa6      	        movew %sp@+,0x5fa6 ;src x
20c4:	21df 3b2a      	        movel %sp@+,0x3b2a ;address
20c8:	31df 5f96      	        movew %sp@+,0x5f96 ;bba command
20cc:	4e75           	        rts

20ce:	48e7 7800      	        moveml %d1-%d4,%sp@-
20d2:	3638 6024      	        movew 0x6024,%d3 ;msk w
20d6:	3838 6026      	        movew 0x6026,%d4 ;msk h
20da:	0838 0001 5f94 	        btst #1,0x5f94   ;src bitmap?
20e0:	672a           	        beqs 0x210c
20e2:	3238 5fa0      	        movew 0x5fa0,%d1 ;src w
20e6:	3438 5fa6      	        movew 0x5fa6,%d2 ;src x
20ea:	6718           	        beqs 0x2104
20ec:	6e10           	        bgts 0x20fe
20ee:	4278 5fa6      	        clrw 0x5fa6     ;src x
20f2:	9578 601e      	        subw %d2,0x601e ;msk x
20f6:	9578 6032      	        subw %d2,0x6032 ;dst x
20fa:	d642           	        addw %d2,%d3    ;msk w
20fc:	6006           	        bras 0x2104
20fe:	9242           	        subw %d2,%d1    ;src w
2100:	6f00 00f2      	        blew 0x21f4
2104:	b243           	        cmpw %d3,%d1
2106:	6c34           	        bges 0x213c
2108:	3601           	        movew %d1,%d3
210a:	6030           	        bras 0x213c
210c:	0838 0003 5f94 	        btst #3,0x5f94   ;msk bitmap?
2112:	6728           	        beqs 0x213c
2114:	3238 6018      	        movew 0x6018,%d1 ;msk w
2118:	3438 601e      	        movew 0x601e,%d2 ;msk x
211c:	671e           	        beqs 0x213c
211e:	6e16           	        bgts 0x2136
2120:	9578 5fa6      	        subw %d2,0x5fa6  ;src x
2124:	4278 601e      	        clrw 0x601e      ;msk x
2128:	9578 6032      	        subw %d2,0x6032  ;dst x
212c:	d642           	        addw %d2,%d3
212e:	600c           	        bras 0x213c
2130:	9242           	        subw %d2,%d1
2132:	6f00 00c0      	        blew 0x21f4
2136:	b243           	        cmpw %d3,%d1
2138:	6c02           	        bges 0x213c
213a:	3601           	        movew %d1,%d3
213c:	3238 602c      	        movew 0x602c,%d1 ;dst w
2140:	3438 6032      	        movew 0x6032,%d2 ;dst x
2144:	6718           	        beqs 0x215e
2146:	6e10           	        bgts 0x2158
2148:	9578 5fa6      	        subw %d2,0x5fa6 ;src x
214c:	9578 601e      	        subw %d2,0x601e ;msk x
2150:	4278 6032      	        clrw 0x6032 ;dst x
2154:	d642           	        addw %d2,%d3
2156:	6006           	        bras 0x215e
2158:	9242           	        subw %d2,%d1
215a:	6f00 0098      	        blew 0x21f4
215e:	b243           	        cmpw %d3,%d1
2160:	6c02           	        bges 0x2164
2162:	3601           	        movew %d1,%d3
2164:	3238 602e      	        movew 0x602e,%d1 ;dst h
2168:	3438 6034      	        movew 0x6034,%d2
216c:	6718           	        beqs 0x2186
216e:	6e10           	        bgts 0x2180
2170:	9578 5fa8      	        subw %d2,0x5fa8 ;src y
2174:	9578 6020      	        subw %d2,0x6020 ;msk y
2178:	4278 6034      	        clrw 0x6034
217c:	d842           	        addw %d2,%d4
217e:	6006           	        bras 0x2186
2180:	9242           	        subw %d2,%d1
2182:	6f00 0070      	        blew 0x21f4
2186:	b244           	        cmpw %d4,%d1
2188:	6c02           	        bges 0x218c
218a:	3801           	        movew %d1,%d4
218c:	4a78 603e      	        tstw 0x603e      ;clip count
2190:	6754           	        beqs 0x21e6
2192:	3238 6044      	        movew 0x6044,%d1 ;clip w
2196:	3438 6040      	        movew 0x6040,%d2 ;clip x
219a:	9478 6032      	        subw 0x6032,%d2 ;dst x
219e:	6716           	        beqs 0x21b6
21a0:	6d12           	        blts 0x21b4
21a2:	d578 5fa6      	        addw %d2,0x5fa6     ;src x
21a6:	d578 601e      	        addw %d2,0x601e     ;msk x
21aa:	31f8 6040 6032 	        movew 0x6040,0x6032 ;dst x
21b0:	9642           	        subw %d2,%d3
21b2:	6002           	        bras 0x21b6
21b4:	d242           	        addw %d2,%d1
21b6:	b243           	        cmpw %d3,%d1
21b8:	6c02           	        bges 0x21bc
21ba:	3601           	        movew %d1,%d3
21bc:	3238 6046      	        movew 0x6046,%d1 ;clip h
21c0:	3438 6042      	        movew 0x6042,%d2 ;clip y
21c4:	9478 6034      	        subw 0x6034,%d2
21c8:	6716           	        beqs 0x21e0
21ca:	6d12           	        blts 0x21de
21cc:	d578 5fa8      	        addw %d2,0x5fa8 ;src y
21d0:	d578 6020      	        addw %d2,0x6020 ;msk y
21d4:	31f8 6042 6034 	        movew 0x6042,0x6034
21da:	9842           	        subw %d2,%d4
21dc:	6002           	        bras 0x21e0
21de:	d242           	        addw %d2,%d1
21e0:	b244           	        cmpw %d4,%d1
21e2:	6c02           	        bges 0x21e6
21e4:	3801           	        movew %d1,%d4
21e6:	31c3 3b36      	        movew %d3,0x3b36 ;msk w
21ea:	31c4 3b38      	        movew %d4,0x3b38 ;msk h
21ee:	4cdf 001e      	        moveml %sp@+,%d1-%d4
21f2:	4e75           	        rts
21f4:	50f8 3b3a      	        st 0x3b3a
21f8:	60ec           	        bras 0x21e6

;print text - process source
21fa:	2200           	        movel %d0,%d1
21fc:	e688           	        lsrl #3,%d0
21fe:	0241 0007      	        andiw #7,%d1
2202:	e549           	        lslw #2,%d1
2204:	0c41 000c      	        cmpiw #12,%d1
2208:	640e           	        bccs 0x2218
220a:	227c 0000 2226 	        moveal #8742,%a1
2210:	2271 1000      	        moveal %a1@(0,%d1:w),%a1
2214:	4e91           	        jsr %a1@
2216:	4e75           	        rts
2218:	31fc 8020 60d4 	        movew #-32736,0x60d4
221e:	6100 25da      	        bsrw 0x47fa
2222:	6000 ee40      	        braw 0x1064

2226:	0000 383a      	        orib #58,%d0
222a:	0000 2232      	        orib #50,%d0
222e:	0000 38e8      	        orib #-24,%d0

;print text - source 1, font
2232:	08f8 0001 5f94 	        bset #1,0x5f94 ;flag src bitmap
2238:	0078 0001 5f96 	        oriw #1,0x5f96 ;bba command
223e:	2218           	        movel %a0@+,%d1
2240:	4841           	        swap %d1
2242:	2241           	        moveal %d1,%a1
2244:	d0fc 000a      	        addaw #10,%a0
2248:	2449           	        moveal %a1,%a2
224a:	2219           	        movel %a1@+,%d1
224c:	4841           	        swap %d1
224e:	2641           	        moveal %d1,%a3
2250:	d7ca           	        addal %a2,%a3
2252:	21cb 5f9c      	        movel %a3,0x5f9c ;src address
2256:	3219           	        movew %a1@+,%d1
2258:	6f2c           	        bles 0x2286
225a:	31c1 5fa0      	        movew %d1,0x5fa0 ;src w
225e:	0641 000f      	        addiw #15,%d1
2262:	e849           	        lsrw #4,%d1
2264:	e349           	        lslw #1,%d1
2266:	31c1 5faa      	        movew %d1,0x5faa ;src w
226a:	3219           	        movew %a1@+,%d1
226c:	6f26           	        bles 0x2294
226e:	31c1 5fa2      	        movew %d1,0x5fa2 ;src h
2272:	31c1 6026      	        movew %d1,0x6026 ;msk h
2276:	3219           	        movew %a1@+,%d1
2278:	6f28           	        bles 0x22a2
227a:	0c41 0001      	        cmpiw #1,%d1
227e:	6e22           	        bgts 0x22a2
2280:	6100 0114      	        bsrw 0x2396
2284:	4e75           	        rts

2286:	31fc 8057 60d4 	        movew #-32681,0x60d4
228c:	6100 256c      	        bsrw 0x47fa
2290:	6000 edd2      	        braw 0x1064
2294:	31fc 8058 60d4 	        movew #-32680,0x60d4
229a:	6100 255e      	        bsrw 0x47fa
229e:	6000 edc4      	        braw 0x1064
22a2:	31fc 8059 60d4 	        movew #-32679,0x60d4
22a8:	6100 2550      	        bsrw 0x47fa
22ac:	6000 edb6      	        braw 0x1064

;print text - process mask
22b0:	2200           	        movel %d0,%d1
22b2:	e688           	        lsrl #3,%d0
22b4:	0241 0007      	        andiw #7,%d1
22b8:	e549           	        lslw #2,%d1
22ba:	0c41 0008      	        cmpiw #8,%d1
22be:	640e           	        bccs 0x22ce
22c0:	227c 0000 22dc 	        moveal #8924,%a1
22c6:	2271 1000      	        moveal %a1@(0,%d1:w),%a1
22ca:	4e91           	        jsr %a1@
22cc:	4e75           	        rts
22ce:	31fc 8026 60d4 	        movew #-32730,0x60d4
22d4:	6100 2524      	        bsrw 0x47fa
22d8:	6000 ed8a      	        braw 0x1064

22dc:	0000 22e4      	        orib #-28,%d0
22e0:	0000 2300      	        orib #0,%d0

;print text - mask 0
22e4:	d0fc 0012      	        addaw #18,%a0
22e8:	0838 0001 5f94 	        btst #1,0x5f94 ;src bitmap?
22ee:	6702           	        beqs 0x22f2
22f0:	4e75           	        rts
22f2:	31fc 8056 60d4 	        movew #-32682,0x60d4
22f8:	6100 2500      	        bsrw 0x47fa
22fc:	6000 ed66      	        braw 0x1064

;print test - mask 1, bitmap
2300:	0838 0001 5f94 	        btst #1,0x5f94 ;src bitmap?
2306:	6600 0056      	        bnew 0x235e
230a:	08f8 0003 5f94 	        bset #3,0x5f94 ;flag msk bitmap
2310:	0078 0002 5f96 	        oriw #2,0x5f96 ;bba command, bitmap mask?
2316:	2218           	        movel %a0@+,%d1
2318:	4841           	        swap %d1
231a:	2241           	        moveal %d1,%a1
231c:	d0fc 000e      	        addaw #14,%a0
2320:	2449           	        moveal %a1,%a2
2322:	2219           	        movel %a1@+,%d1
2324:	4841           	        swap %d1
2326:	2641           	        moveal %d1,%a3
2328:	d7ca           	        addal %a2,%a3
232a:	21cb 6014      	        movel %a3,0x6014 ;msk address
232e:	3219           	        movew %a1@+,%d1
2330:	6f3a           	        bles 0x236c
2332:	31c1 6018      	        movew %d1,0x6018 ;msk w
2336:	0641 000f      	        addiw #15,%d1
233a:	e849           	        lsrw #4,%d1
233c:	e349           	        lslw #1,%d1
233e:	31c1 6022      	        movew %d1,0x6022 ;msk w
2342:	3219           	        movew %a1@+,%d1
2344:	6f34           	        bles 0x237a
2346:	31c1 601a      	        movew %d1,0x601a ;msk h
234a:	31c1 6026      	        movew %d1,0x6026 ;
234e:	3219           	        movew %a1@+,%d1
2350:	6f36           	        bles 0x2388
2352:	0c41 0001      	        cmpiw #1,%d1
2356:	6e30           	        bgts 0x2388
2358:	6100 003c      	        bsrw 0x2396
235c:	4e75           	        rts
235e:	31fc 805d 60d4 	        movew #-32675,0x60d4
2364:	6100 2494      	        bsrw 0x47fa
2368:	6000 ecfa      	        braw 0x1064
236c:	31fc 805a 60d4 	        movew #-32678,0x60d4
2372:	6100 2486      	        bsrw 0x47fa
2376:	6000 ecec      	        braw 0x1064
237a:	31fc 805b 60d4 	        movew #-32677,0x60d4
2380:	6100 2478      	        bsrw 0x47fa
2384:	6000 ecde      	        braw 0x1064
2388:	31fc 805c 60d4 	        movew #-32676,0x60d4
238e:	6100 246a      	        bsrw 0x47fa
2392:	6000 ecd0      	        braw 0x1064

2396:	21fc 0000 1ea0 1bbe     movel #7840,0x1bbe
239e:	3219           	        movew %a1@+,%d1
23a0:	6b30           	        bmis 0x23d2
23a2:	3419           	        movew %a1@+,%d2
23a4:	31c1 6080      	        movew %d1,0x6080
23a8:	9441           	        subw %d1,%d2
23aa:	6d26           	        blts 0x23d2
23ac:	31c2 6082      	        movew %d2,0x6082
23b0:	2219           	        movel %a1@+,%d1
23b2:	4841           	        swap %d1
23b4:	2641           	        moveal %d1,%a3
23b6:	d7ca           	        addal %a2,%a3
23b8:	21cb 6084      	        movel %a3,0x6084
23bc:	5449           	        addqw #2,%a1
23be:	31d9 6088      	        movew %a1@+,0x6088
23c2:	31d9 608a      	        movew %a1@+,0x608a
23c6:	6708           	        beqs 0x23d0
23c8:	21fc 0000 1f84 1bbe     movel #8068,0x1bbe
23d0:	4e75           	        rts
23d2:	31fc 805e 60d4 	        movew #-32674,0x60d4
23d8:	6100 2420      	        bsrw 0x47fa
23dc:	6000 ec86      	        braw 0x1064

23e0:	2218           	        movel %a0@+,%d1
23e2:	4841           	        swap %d1
23e4:	21c1 6028      	        movel %d1,0x6028 ;dst address
23e8:	3218           	        movew %a0@+,%d1
23ea:	6f3e           	        bles 0x242a
23ec:	31c1 602c      	        movew %d1,0x602c ;dst w
23f0:	0641 000f      	        addiw #15,%d1
23f4:	e849           	        lsrw #4,%d1
23f6:	e349           	        lslw #1,%d1
23f8:	31c1 6036      	        movew %d1,0x6036   ;dst W
23fc:	31d8 602e      	        movew %a0@+,0x602e ;dst h
2400:	6f36           	        bles 0x2438
2402:	3218           	        movew %a0@+,%d1
2404:	6f40           	        bles 0x2446
2406:	0c41 0001      	        cmpiw #1,%d1
240a:	6e3a           	        bgts 0x2446
240c:	2200           	        movel %d0,%d1
240e:	e688           	        lsrl #3,%d0
2410:	0241 0007      	        andiw #7,%d1
2414:	e549           	        lslw #2,%d1
2416:	0c41 0010      	        cmpiw #16,%d1
241a:	6438           	        bccs 0x2454
241c:	227c 0000 2462 	        moveal #9314,%a1
2422:	2271 1000      	        moveal %a1@(0,%d1:w),%a1
2426:	4e91           	        jsr %a1@
2428:	4e75           	        rts
242a:	31fc 802d 60d4 	        movew #-32723,0x60d4
2430:	6100 23c8      	        bsrw 0x47fa
2434:	6000 ec2e      	        braw 0x1064
2438:	31fc 802e 60d4 	        movew #-32722,0x60d4
243e:	6100 23ba      	        bsrw 0x47fa
2442:	6000 ec20      	        braw 0x1064
2446:	31fc 802f 60d4 	        movew #-32721,0x60d4
244c:	6100 23ac      	        bsrw 0x47fa
2450:	6000 ec12      	        braw 0x1064
2454:	31fc 802c 60d4 	        movew #-32724,0x60d4
245a:	6100 239e      	        bsrw 0x47fa
245e:	6000 ec04      	        braw 0x1064

2462:	0000 2472      	        orib #114,%d0
2466:	0000 2480      	        orib #-128,%d0
246a:	0000 2494      	        orib #-108,%d0
246e:	0000 24a6      	        orib #-90,%d0

;0
2472:	51f8 6090      	        sf 0x6090
2476:	31d8 6032      	        movew %a0@+,0x6032 ;dst x
247a:	31d8 6034      	        movew %a0@+,0x6034 ;dst y
247e:	4e75           	        rts

;1
2480:	51f8 6090      	        sf 0x6090
2484:	2218           	        movel %a0@+,%d1
2486:	4841           	        swap %d1
2488:	2241           	        moveal %d1,%a1
248a:	31d9 6032      	        movew %a1@+,0x6032 ;dst x
248e:	31d1 6034      	        movew %a1@,0x6034  ;dst y
2492:	4e75           	        rts

;2
2494:	50f8 6090      	        st 0x6090
2498:	21c8 608c      	        movel %a0,0x608c
249c:	31d8 6032      	        movew %a0@+,0x6032 ;dst x
24a0:	31d8 6034      	        movew %a0@+,0x6034 ;dst y
24a4:	4e75           	        rts

;3
24a6:	50f8 6090      	        st 0x6090
24aa:	2218           	        movel %a0@+,%d1
24ac:	4841           	        swap %d1
24ae:	2241           	        moveal %d1,%a1
24b0:	21c9 608c      	        movel %a1,0x608c
24b4:	31d9 6032      	        movew %a1@+,0x6032 ;dst x
24b8:	31d1 6034      	        movew %a1@,0x6034  ;dst y
24bc:	4e75           	        rts

;print text - process text size
24be:	e288           	        lsrl #1,%d0
24c0:	55f8 6091      	        scs 0x6091
24c4:	2218           	        movel %a0@+,%d1
24c6:	4841           	        swap %d1
24c8:	21c1 6092      	        movel %d1,0x6092
24cc:	31d8 6096      	        movew %a0@+,0x6096
24d0:	6f02           	        bles 0x24d4
24d2:	4e75           	        rts
24d4:	31fc 8053 60d4 	        movew #-32685,0x60d4
24da:	6100 231e      	        bsrw 0x47fa
24de:	6000 eb84      	        braw 0x1064

;print text - process control string
24e2:	e288           	        lsrl #1,%d0
24e4:	6508           	        bcss 0x24ee
24e6:	4278 609c      	        clrw 0x609c
24ea:	5c48           	        addqw #6,%a0
24ec:	600e           	        bras 0x24fc
24ee:	2218           	        movel %a0@+,%d1
24f0:	4841           	        swap %d1
24f2:	21c1 6098      	        movel %d1,0x6098
24f6:	31d8 609c      	        movew %a0@+,0x609c
24fa:	6f0a           	        bles 0x2506
24fc:	31d8 609e      	        movew %a0@+,0x609e
2500:	31d8 60a0      	        movew %a0@+,0x60a0
2504:	4e75           	        rts
2506:	31fc 8050 60d4 	        movew #-32688,0x60d4
250c:	6100 22ec      	        bsrw 0x47fa
2510:	6000 eb52      	        braw 0x1064

;flood area
2528:	6100 1298      	        bsrw 0x37c2
252c:	2078 5f8c      	        moveal 0x5f8c,%a0
2530:	2038 5f90      	        movel 0x5f90,%d0  ;modifier
2534:	6100 04ce      	        bsrw 0x2a04
2538:	e688           	        lsrl #3,%d0
253a:	6100 14a8      	        bsrw 0x39e4
253e:	e688           	        lsrl #3,%d0
2540:	6100 0508      	        bsrw 0x2a4a
2544:	6100 0552      	        bsrw 0x2a98
2548:	6100 116c      	        bsrw 0x36b6
254c:	31f8 6032 60a2 	        movew 0x6032,0x60a2 ;dst x
2552:	31f8 6034 60a4 	        movew 0x6034,0x60a4 ;dst y
2558:	3038 60a6      	        movew 0x60a6,%d0
255c:	6728           	        beqs 0x2586
255e:	0c40 0003      	        cmpiw #3,%d0
2562:	6726           	        beqs 0x258a
2564:	4241           	        clrw %d1
2566:	e248           	        lsrw #1,%d0
2568:	6404           	        bccs 0x256e
256a:	323c ffff      	        movew #-1,%d1
256e:	0838 0002 5f94 	        btst #2,0x5f94  ;src tile?
2574:	6606           	        bnes 0x257c
2576:	b278 5f9a      	        cmpw 0x5f9a,%d1 ;const
257a:	670e           	        beqs 0x258a
257c:	31c1 2524      	        movew %d1,0x2524
2580:	6100 0014      	        bsrw 0x2596
2584:	6004           	        bras 0x258a
2586:	6100 045e      	        bsrw 0x29e6
258a:	31fc 0002 60d4 	        movew #2,0x60d4
2590:	6100 2268      	        bsrw 0x47fa
2594:	4e75           	        rts
2596:	6100 11a4      	        bsrw 0x373c
259a:	6100 38e6      	        bsrw 0x5e82
259e:	2c7c 0001 c000 	        moveal #114688,%fp
25a4:	4244           	        clrw %d4
25a6:	3c38 60a2      	        movew 0x60a2,%d6
25aa:	3e38 60a4      	        movew 0x60a4,%d7
25ae:	6100 01ec      	        bsrw 0x279c
25b2:	31c2 2514      	        movew %d2,0x2514
25b6:	6100 0280      	        bsrw 0x2838
25ba:	31c2 2516      	        movew %d2,0x2516
25be:	0c44 0800      	        cmpiw #2048,%d4
25c2:	6c00 015c      	        bgew 0x2720
25c6:	3cf8 2514      	        movew 0x2514,%fp@+
25ca:	3cc2           	        movew %d2,%fp@+
25cc:	3cc7           	        movew %d7,%fp@+
25ce:	3cfc 0001      	        movew #1,%fp@+
25d2:	5244           	        addqw #1,%d4
25d4:	5247           	        addqw #1,%d7
25d6:	0c44 0800      	        cmpiw #2048,%d4
25da:	6c00 0144      	        bgew 0x2720
25de:	3cf8 2514      	        movew 0x2514,%fp@+
25e2:	3cc2           	        movew %d2,%fp@+
25e4:	3cc7           	        movew %d7,%fp@+
25e6:	3cfc ffff      	        movew #-1,%fp@+
25ea:	5244           	        addqw #1,%d4
25ec:	50f8 2526      	        st 0x2526
25f0:	4a38 60e2      	        tstb 0x60e2
25f4:	66fa           	        bnes 0x25f0
25f6:	4a44           	        tstw %d4
25f8:	6f00 0124      	        blew 0x271e
25fc:	5344           	        subqw #1,%d4
25fe:	31e6 2520      	        movew %fp@-,0x2520
2602:	31e6 2518      	        movew %fp@-,0x2518
2606:	31e6 2516      	        movew %fp@-,0x2516
260a:	31e6 2514      	        movew %fp@-,0x2514
260e:	31f8 2520 2522 	        movew 0x2520,0x2522
2614:	67e0           	        beqs 0x25f6
2616:	4478 2522      	        negw 0x2522
261a:	3438 2518      	        movew 0x2518,%d2
261e:	d478 2520      	        addw 0x2520,%d2
2622:	b478 36b2      	        cmpw 0x36b2,%d2
2626:	6dce           	        blts 0x25f6
2628:	b478 36b4      	        cmpw 0x36b4,%d2
262c:	6ec8           	        bgts 0x25f6
262e:	31c2 251e      	        movew %d2,0x251e
2632:	6100 00fa      	        bsrw 0x272e
2636:	4a78 2520      	        tstw 0x2520
263a:	67ba           	        beqs 0x25f6
263c:	3c38 2514      	        movew 0x2514,%d6
2640:	3e38 251e      	        movew 0x251e,%d7
2644:	6100 013a      	        bsrw 0x2780
2648:	31c2 251a      	        movew %d2,0x251a
264c:	b478 2516      	        cmpw 0x2516,%d2
2650:	6ea4           	        bgts 0x25f6
2652:	3c38 2516      	        movew 0x2516,%d6
2656:	3e38 251e      	        movew 0x251e,%d7
265a:	6100 0132      	        bsrw 0x278e
265e:	31c2 251c      	        movew %d2,0x251c
2662:	3438 2514      	        movew 0x2514,%d2
2666:	9478 251a      	        subw 0x251a,%d2
266a:	0c42 0001      	        cmpiw #1,%d2
266e:	6f30           	        bles 0x26a0
2670:	3c38 251a      	        movew 0x251a,%d6
2674:	5346           	        subqw #1,%d6
2676:	3e38 2518      	        movew 0x2518,%d7
267a:	6100 0268      	        bsrw 0x28e4
267e:	3238 2514      	        movew 0x2514,%d1
2682:	5541           	        subqw #2,%d1
2684:	b441           	        cmpw %d1,%d2
2686:	6e18           	        bgts 0x26a0
2688:	5246           	        addqw #1,%d6
268a:	0c44 0800      	        cmpiw #2048,%d4
268e:	6c00 0090      	        bgew 0x2720
2692:	3cc6           	        movew %d6,%fp@+
2694:	3cc1           	        movew %d1,%fp@+
2696:	3cf8 251e      	        movew 0x251e,%fp@+
269a:	3cf8 2522      	        movew 0x2522,%fp@+
269e:	5244           	        addqw #1,%d4
26a0:	3438 251c      	        movew 0x251c,%d2
26a4:	9478 2516      	        subw 0x2516,%d2
26a8:	0c42 0001      	        cmpiw #1,%d2
26ac:	6f2e           	        bles 0x26dc
26ae:	3c38 2516      	        movew 0x2516,%d6
26b2:	5246           	        addqw #1,%d6
26b4:	3e38 2518      	        movew 0x2518,%d7
26b8:	6100 022a      	        bsrw 0x28e4
26bc:	3238 251c      	        movew 0x251c,%d1
26c0:	b441           	        cmpw %d1,%d2
26c2:	6e18           	        bgts 0x26dc
26c4:	5246           	        addqw #1,%d6
26c6:	0c44 0800      	        cmpiw #2048,%d4
26ca:	6c00 0054      	        bgew 0x2720
26ce:	3cc6           	        movew %d6,%fp@+
26d0:	3cc1           	        movew %d1,%fp@+
26d2:	3cf8 251e      	        movew 0x251e,%fp@+
26d6:	3cf8 2522      	        movew 0x2522,%fp@+
26da:	5244           	        addqw #1,%d4
26dc:	3c38 251a      	        movew 0x251a,%d6
26e0:	3e38 251e      	        movew 0x251e,%d7
26e4:	6100 0210      	        bsrw 0x28f6
26e8:	b478 251c      	        cmpw 0x251c,%d2
26ec:	671e           	        beqs 0x270c
26ee:	0c44 0800      	        cmpiw #2048,%d4
26f2:	6c00 002c      	        bgew 0x2720
26f6:	3cc6           	        movew %d6,%fp@+
26f8:	3cc2           	        movew %d2,%fp@+
26fa:	3cc7           	        movew %d7,%fp@+
26fc:	3cf8 2520      	        movew 0x2520,%fp@+
2700:	5244           	        addqw #1,%d4
2702:	3c02           	        movew %d2,%d6
2704:	6100 01de      	        bsrw 0x28e4
2708:	3c02           	        movew %d2,%d6
270a:	60d8           	        bras 0x26e4
270c:	31c6 2514      	        movew %d6,0x2514
2710:	31c2 2516      	        movew %d2,0x2516
2714:	31f8 251e 2518 	        movew 0x251e,0x2518
271a:	6000 fefe      	        braw 0x261a
271e:	4e75           	        rts
2720:	31fc 8063 60d4 	        movew #-32669,0x60d4
2726:	6100 20d2      	        bsrw 0x47fa
272a:	6000 e938      	        braw 0x1064
272e:	48e7 7c80      	        moveml %d1-%d5/%a0,%sp@-
2732:	4a38 2526      	        tstb 0x2526
2736:	663e           	        bnes 0x2776
2738:	207c 0001 c000 	        moveal #114688,%a0
273e:	3238 2514      	        movew 0x2514,%d1
2742:	3a38 2516      	        movew 0x2516,%d5
2746:	3638 2522      	        movew 0x2522,%d3
274a:	4a44           	        tstw %d4
274c:	6728           	        beqs 0x2776
274e:	5344           	        subqw #1,%d4
2750:	b468 0004      	        cmpw %a0@(4),%d2
2754:	6610           	        bnes 0x2766
2756:	b668 0006      	        cmpw %a0@(6),%d3
275a:	660a           	        bnes 0x2766
275c:	ba50           	        cmpw %a0@,%d5
275e:	6f06           	        bles 0x2766
2760:	b268 0002      	        cmpw %a0@(2),%d1
2764:	6d08           	        blts 0x276e
2766:	5048           	        addqw #8,%a0
2768:	51cc ffe6      	        dbf %d4,0x2750
276c:	6008           	        bras 0x2776
276e:	4278 2520      	        clrw 0x2520
2772:	4268 0006      	        clrw %a0@(6)
2776:	51f8 2526      	        sf 0x2526
277a:	4cdf 013e      	        moveml %sp@+,%d1-%d5/%a0
277e:	4e75           	        rts
2780:	6100 001a      	        bsrw 0x279c
2784:	b446           	        cmpw %d6,%d2
2786:	6f04           	        bles 0x278c
2788:	6100 015a      	        bsrw 0x28e4
278c:	4e75           	        rts
278e:	6100 00a8      	        bsrw 0x2838
2792:	b446           	        cmpw %d6,%d2
2794:	6c04           	        bges 0x279a
2796:	6100 013a      	        bsrw 0x28d2
279a:	4e75           	        rts
279c:	48e7 5f00      	        moveml %d1/%d3-%d7,%sp@-
27a0:	3a38 2524      	        movew 0x2524,%d5
27a4:	3406           	        movew %d6,%d2
27a6:	e84e           	        lsrw #4,%d6
27a8:	3606           	        movew %d6,%d3
27aa:	e34e           	        lslw #1,%d6
27ac:	2078 6028      	        moveal 0x6028,%a0 ;dst address
27b0:	d0c6           	        addaw %d6,%a0
27b2:	3838 6036      	        movew 0x6036,%d4  ;dst W
27b6:	c9c7           	        mulsw %d7,%d4
27b8:	d1c4           	        addal %d4,%a0
27ba:	4a58           	        tstw %a0@+
27bc:	3838 36a6      	        movew 0x36a6,%d4  ;x
27c0:	0244 000f      	        andiw #15,%d4
27c4:	323c 000f      	        movew #15,%d1
27c8:	3c02           	        movew %d2,%d6
27ca:	0042 000f      	        oriw #15,%d2
27ce:	0246 000f      	        andiw #15,%d6
27d2:	9246           	        subw %d6,%d1
27d4:	672e           	        beqs 0x2804
27d6:	b678 36aa      	        cmpw 0x36aa,%d3
27da:	6e18           	        bgts 0x27f4
27dc:	3c20           	        movew %a0@-,%d6
27de:	bb46           	        eorw %d5,%d6
27e0:	e36e           	        lslw %d1,%d6
27e2:	e26e           	        lsrw %d1,%d6
27e4:	e86e           	        lsrw %d4,%d6
27e6:	e96e           	        lslw %d4,%d6
27e8:	6600 003e      	        bnew 0x2828
27ec:	3438 36a6      	        movew 0x36a6,%d2
27f0:	6000 0040      	        braw 0x2832
27f4:	3c20           	        movew %a0@-,%d6
27f6:	bb46           	        eorw %d5,%d6
27f8:	e36e           	        lslw %d1,%d6
27fa:	e26e           	        lsrw %d1,%d6
27fc:	662a           	        bnes 0x2828
27fe:	0442 0010      	        subiw #16,%d2
2802:	5343           	        subqw #1,%d3
2804:	b678 36aa      	        cmpw 0x36aa,%d3
2808:	6e10           	        bgts 0x281a
280a:	3c20           	        movew %a0@-,%d6
280c:	bb46           	        eorw %d5,%d6
280e:	e86e           	        lsrw %d4,%d6
2810:	e96e           	        lslw %d4,%d6
2812:	6614           	        bnes 0x2828
2814:	3438 36a6      	        movew 0x36a6,%d2
2818:	6018           	        bras 0x2832
281a:	3c20           	        movew %a0@-,%d6
281c:	bb46           	        eorw %d5,%d6
281e:	6608           	        bnes 0x2828
2820:	0442 0010      	        subiw #16,%d2
2824:	5343           	        subqw #1,%d3
2826:	60dc           	        bras 0x2804
2828:	e34e           	        lslw #1,%d6
282a:	6504           	        bcss 0x2830
282c:	5342           	        subqw #1,%d2
282e:	60f8           	        bras 0x2828
2830:	5242           	        addqw #1,%d2
2832:	4cdf 00fa      	        moveml %sp@+,%d1/%d3-%d7
2836:	4e75           	        rts
2838:	48e7 5f00      	        moveml %d1/%d3-%d7,%sp@-
283c:	3a38 2524      	        movew 0x2524,%d5
2840:	3406           	        movew %d6,%d2
2842:	e84e           	        lsrw #4,%d6
2844:	3606           	        movew %d6,%d3
2846:	e34e           	        lslw #1,%d6
2848:	2078 6028      	        moveal 0x6028,%a0 ;dst address
284c:	d0c6           	        addaw %d6,%a0
284e:	3838 6036      	        movew 0x6036,%d4  ;dst W
2852:	c9c7           	        mulsw %d7,%d4
2854:	d1c4           	        addal %d4,%a0
2856:	383c 000f      	        movew #15,%d4
285a:	3c38 36ac      	        movew 0x36ac,%d6
285e:	0246 000f      	        andiw #15,%d6
2862:	9846           	        subw %d6,%d4
2864:	3202           	        movew %d2,%d1
2866:	0242 fff0      	        andiw #-16,%d2
286a:	0241 000f      	        andiw #15,%d1
286e:	672e           	        beqs 0x289e
2870:	b678 36b0      	        cmpw 0x36b0,%d3
2874:	6d18           	        blts 0x288e
2876:	3c18           	        movew %a0@+,%d6
2878:	bb46           	        eorw %d5,%d6
287a:	e26e           	        lsrw %d1,%d6
287c:	e36e           	        lslw %d1,%d6
287e:	e96e           	        lslw %d4,%d6
2880:	e86e           	        lsrw %d4,%d6
2882:	6600 003e      	        bnew 0x28c2
2886:	3438 36ac      	        movew 0x36ac,%d2
288a:	6000 0040      	        braw 0x28cc
288e:	3c18           	        movew %a0@+,%d6
2890:	bb46           	        eorw %d5,%d6
2892:	e26e           	        lsrw %d1,%d6
2894:	e36e           	        lslw %d1,%d6
2896:	662a           	        bnes 0x28c2
2898:	0642 0010      	        addiw #16,%d2
289c:	5243           	        addqw #1,%d3
289e:	b678 36b0      	        cmpw 0x36b0,%d3
28a2:	6d10           	        blts 0x28b4
28a4:	3c18           	        movew %a0@+,%d6
28a6:	bb46           	        eorw %d5,%d6
28a8:	e96e           	        lslw %d4,%d6
28aa:	e86e           	        lsrw %d4,%d6
28ac:	6614           	        bnes 0x28c2
28ae:	3438 36ac      	        movew 0x36ac,%d2
28b2:	6018           	        bras 0x28cc
28b4:	3c18           	        movew %a0@+,%d6
28b6:	bb46           	        eorw %d5,%d6
28b8:	6608           	        bnes 0x28c2
28ba:	0642 0010      	        addiw #16,%d2
28be:	5243           	        addqw #1,%d3
28c0:	60dc           	        bras 0x289e
28c2:	e24e           	        lsrw #1,%d6
28c4:	6504           	        bcss 0x28ca
28c6:	5242           	        addqw #1,%d2
28c8:	60f8           	        bras 0x28c2
28ca:	5342           	        subqw #1,%d2
28cc:	4cdf 00fa      	        moveml %sp@+,%d1/%d3-%d7
28d0:	4e75           	        rts
28d2:	5346           	        subqw #1,%d6
28d4:	4678 2524      	        notw 0x2524
28d8:	6100 fec2      	        bsrw 0x279c
28dc:	4678 2524      	        notw 0x2524
28e0:	5342           	        subqw #1,%d2
28e2:	4e75           	        rts
28e4:	5246           	        addqw #1,%d6
28e6:	4678 2524      	        notw 0x2524
28ea:	6100 ff4c      	        bsrw 0x2838
28ee:	4678 2524      	        notw 0x2524
28f2:	5242           	        addqw #1,%d2
28f4:	4e75           	        rts

28f6:	48e7 5f00      	        moveml %d1/%d3-%d7,%sp@-
28fa:	3a38 2524      	        movew 0x2524,%d5
28fe:	383c ffff      	        movew #-1,%d4
2902:	0838 0002 5f94 	        btst #2,0x5f94 ;src tile?
2908:	6712           	        beqs 0x291c
290a:	2078 5fb0      	        moveal 0x5fb0,%a0 ;tile a
290e:	3407           	        movew %d7,%d2
2910:	0242 000f      	        andiw #15,%d2
2914:	e34a           	        lslw #1,%d2
2916:	3830 2000      	        movew %a0@(0,%d2:w),%d4
291a:	bb44           	        eorw %d5,%d4
291c:	3406           	        movew %d6,%d2
291e:	e84e           	        lsrw #4,%d6
2920:	3606           	        movew %d6,%d3
2922:	e34e           	        lslw #1,%d6
2924:	2078 6028      	        moveal 0x6028,%a0 ;dst address
2928:	d0c6           	        addaw %d6,%a0
292a:	3238 6036      	        movew 0x6036,%d1  ;dst W
292e:	c3c7           	        mulsw %d7,%d1
2930:	d1c1           	        addal %d1,%a0
2932:	3e3c 000f      	        movew #15,%d7
2936:	3c38 36ac      	        movew 0x36ac,%d6
293a:	0246 000f      	        andiw #15,%d6
293e:	9e46           	        subw %d6,%d7
2940:	3202           	        movew %d2,%d1
2942:	0242 fff0      	        andiw #-16,%d2
2946:	0241 000f      	        andiw #15,%d1
294a:	6746           	        beqs 0x2992
294c:	b678 36b0      	        cmpw 0x36b0,%d3
2950:	6d24           	        blts 0x2976
2952:	3c10           	        movew %a0@,%d6
2954:	bb46           	        eorw %d5,%d6
2956:	e26e           	        lsrw %d1,%d6
2958:	e36e           	        lslw %d1,%d6
295a:	ef6e           	        lslw %d7,%d6
295c:	ee6e           	        lsrw %d7,%d6
295e:	6600 0060      	        bnew 0x29c0
2962:	3438 36ac      	        movew 0x36ac,%d2
2966:	3c04           	        movew %d4,%d6
2968:	e26e           	        lsrw %d1,%d6
296a:	e36e           	        lslw %d1,%d6
296c:	ef6e           	        lslw %d7,%d6
296e:	ee6e           	        lsrw %d7,%d6
2970:	bd50           	        eorw %d6,%a0@
2972:	6000 006c      	        braw 0x29e0
2976:	3c10           	        movew %a0@,%d6
2978:	bb46           	        eorw %d5,%d6
297a:	e26e           	        lsrw %d1,%d6
297c:	e36e           	        lslw %d1,%d6
297e:	6600 0040      	        bnew 0x29c0
2982:	0642 0010      	        addiw #16,%d2
2986:	5243           	        addqw #1,%d3
2988:	3c04           	        movew %d4,%d6
298a:	e26e           	        lsrw %d1,%d6
298c:	e36e           	        lslw %d1,%d6
298e:	bd58           	        eorw %d6,%a0@+
2990:	4241           	        clrw %d1
2992:	b678 36b0      	        cmpw 0x36b0,%d3
2996:	6d18           	        blts 0x29b0
2998:	3c10           	        movew %a0@,%d6
299a:	bb46           	        eorw %d5,%d6
299c:	ef6e           	        lslw %d7,%d6
299e:	ee6e           	        lsrw %d7,%d6
29a0:	661e           	        bnes 0x29c0
29a2:	3438 36ac      	        movew 0x36ac,%d2
29a6:	3c04           	        movew %d4,%d6
29a8:	ef6e           	        lslw %d7,%d6
29aa:	ee6e           	        lsrw %d7,%d6
29ac:	bd50           	        eorw %d6,%a0@
29ae:	6030           	        bras 0x29e0
29b0:	3c10           	        movew %a0@,%d6
29b2:	bb46           	        eorw %d5,%d6
29b4:	660a           	        bnes 0x29c0
29b6:	b958           	        eorw %d4,%a0@+
29b8:	0642 0010      	        addiw #16,%d2
29bc:	5243           	        addqw #1,%d3
29be:	60d2           	        bras 0x2992
29c0:	4243           	        clrw %d3
29c2:	e24e           	        lsrw #1,%d6
29c4:	6506           	        bcss 0x29cc
29c6:	5242           	        addqw #1,%d2
29c8:	5243           	        addqw #1,%d3
29ca:	60f6           	        bras 0x29c2
29cc:	3e3c 0010      	        movew #16,%d7
29d0:	9e43           	        subw %d3,%d7
29d2:	3c04           	        movew %d4,%d6
29d4:	e26e           	        lsrw %d1,%d6
29d6:	e36e           	        lslw %d1,%d6
29d8:	ef6e           	        lslw %d7,%d6
29da:	ee6e           	        lsrw %d7,%d6
29dc:	bd50           	        eorw %d6,%a0@
29de:	5342           	        subqw #1,%d2
29e0:	4cdf 00fa      	        moveml %sp@+,%d1/%d3-%d7
29e4:	4e75           	        rts

29e6:	31f8 602c 6024 	        movew 0x602c,0x6024 ;dst->mask w
29ec:	31f8 602e 6026 	        movew 0x602e,0x6026 ;dst->mask h
29f2:	31fc 0003 5f98 	        movew #3,0x5f98 ;function
29f8:	6100 1142      	        bsrw 0x3b3c	 ;do one clip
29fc:	4a38 60e2      	        tstb 0x60e2
2a00:	66fa           	        bnes 0x29fc
2a02:	4e75           	        rts
2a04:	2200           	        movel %d0,%d1
2a06:	e688           	        lsrl #3,%d0
2a08:	0241 0007      	        andiw #7,%d1
2a0c:	e549           	        lslw #2,%d1
2a0e:	0c41 000c      	        cmpiw #12,%d1
2a12:	640e           	        bccs 0x2a22
2a14:	227c 0000 2a30 	        moveal #10800,%a1
2a1a:	2271 1000      	        moveal %a1@(0,%d1:w),%a1
2a1e:	4e91           	        jsr %a1@
2a20:	4e75           	        rts
2a22:	31fc 8020 60d4 	        movew #-32736,0x60d4
2a28:	6100 1dd0      	        bsrw 0x47fa
2a2c:	6000 e636      	        braw 0x1064
2a30:	0000 383a      	        orib #58,%d0
2a34:	0000 2a3c      	        orib #60,%d0
2a38:	0000 38e8      	        orib #-24,%d0
2a3c:	31fc 8060 60d4 	        movew #-32672,0x60d4
2a42:	6100 1db6      	        bsrw 0x47fa
2a46:	6000 e61c      	        braw 0x1064
2a4a:	2200           	        movel %d0,%d1
2a4c:	e688           	        lsrl #3,%d0
2a4e:	0241 0007      	        andiw #7,%d1
2a52:	e549           	        lslw #2,%d1
2a54:	0c41 0008      	        cmpiw #8,%d1
2a58:	6428           	        bccs 0x2a82
2a5a:	227c 0000 2a90 	        moveal #10896,%a1
2a60:	2271 1000      	        moveal %a1@(0,%d1:w),%a1
2a64:	4e91           	        jsr %a1@
2a66:	4a78 603e      	        tstw 0x603e        ;clip count
2a6a:	6714           	        beqs 0x2a80
2a6c:	2278 603a      	        moveal 0x603a,%a1
2a70:	31d9 6040      	        movew %a1@+,0x6040 ;clip x
2a74:	31d9 6042      	        movew %a1@+,0x6042 ;clip y
2a78:	31d9 6044      	        movew %a1@+,0x6044 ;clip w
2a7c:	31d9 6046      	        movew %a1@+,0x6046 ;clip h
2a80:	4e75           	        rts
2a82:	31fc 8036 60d4 	        movew #-32714,0x60d4
2a88:	6100 1d70      	        bsrw 0x47fa
2a8c:	6000 e5d6      	        braw 0x1064

2a90:	0000 3ad6      	        orib #-42,%d0
2a94:	0000 3ade      	        orib #-34,%d0

2a98:	e288           	        lsrl #1,%d0
2a9a:	6506           	        bcss 0x2aa2
2a9c:	3218           	        movew %a0@+,%d1
2a9e:	5448           	        addqw #2,%a0
2aa0:	6008           	        bras 0x2aaa
2aa2:	2218           	        movel %a0@+,%d1
2aa4:	4841           	        swap %d1
2aa6:	2241           	        moveal %d1,%a1
2aa8:	3211           	        movew %a1@,%d1
2aaa:	0241 0003      	        andiw #3,%d1
2aae:	31c1 60a6      	        movew %d1,0x60a6
2ab2:	4e75           	        rts

;load cursor
2ab4:	6100 0d0c      	        bsrw 0x37c2
2ab8:	2078 5f8c      	        moveal 0x5f8c,%a0
2abc:	2038 5f90      	        movel 0x5f90,%d0 ;modifier
2ac0:	6100 018e      	        bsrw 0x2c50 ;process source
2ac4:	6100 0ea8      	        bsrw 0x396e ;process mask (9 words)
2ac8:	3238 6024      	        movew 0x6024,%d1 ;msk w
2acc:	0c41 0040      	        cmpiw #64,%d1
2ad0:	6e00 00d2      	        bgtw 0x2ba4
2ad4:	3238 6026      	        movew 0x6026,%d1 ;msk w
2ad8:	0c41 0040      	        cmpiw #64,%d1
2adc:	6e00 00d4      	        bgtw 0x2bb2
2ae0:	e688           	        lsrl #3,%d0
2ae2:	6100 0f1e      	        bsrw 0x3a02 ;process map
2ae6:	6100 01ce      	        bsrw 0x2cb6 ;process blink/tip/center
2aea:	6100 0bca      	        bsrw 0x36b6 ;const/tile/function
2aee:	31f8 5f94 60aa 	        movew 0x5f94,0x60aa ;flags
2af4:	31f8 5f96 60ac 	        movew 0x5f96,0x60ac ;bba command
2afa:	0078 0020 60ac 	        oriw #32,0x60ac     ;load cursor
2b00:	31f8 5f98 60ae 	        movew 0x5f98,0x60ae ;function
2b06:	0838 0001 60aa 	        btst #1,0x60aa
2b0c:	670c           	        beqs 0x2b1a
2b0e:	21fc 0000 5536 6028     movel #21814,0x6028 ;dst address
2b16:	6100 00a8      	        bsrw 0x2bc0
2b1a:	0838 0003 60aa 	        btst #3,0x60aa
2b20:	6730           	        beqs 0x2b52
2b22:	21fc 0000 5736 6028     movel #22326,0x6028 ;dst address
2b2a:	21f8 6014 5f9c 	        movel 0x6014,0x5f9c ;msk->src address
2b30:	31f8 6018 5fa0 	        movew 0x6018,0x5fa0 ;msk->src w
2b36:	31f8 6022 5faa 	        movew 0x6022,0x5faa ;msk->src w
2b3c:	31f8 601a 5fa2 	        movew 0x601a,0x5fa2 ;msk->src h
2b42:	31f8 601e 5fa6 	        movew 0x601e,0x5fa6 ;msk->src x
2b48:	31f8 6020 5fa8 	        movew 0x6020,0x5fa8 ;msk->src y
2b4e:	6100 0070      	        bsrw 0x2bc0  ;copy data
2b52:	6100 00a6      	        bsrw 0x2bfa
2b56:	4a38 60e2      	        tstb 0x60e2
2b5a:	66fa           	        bnes 0x2b56
2b5c:	33fc 0008 0030 0054     movew #8,0x300054     ;cursor src w
2b64:	33fc 0008 0030 005c     movew #8,0x30005c     ;cursor msk w
2b6c:	33fc 0088 0030 0064     movew #136,0x300064   ;cursor dst w
2b74:	33f8 60ae 0030 006a     movew 0x60ae,0x30006a ;cursor function
2b7c:	23fc 0000 60b0 	        movel #24752,0x30006c ;cursor data
2b82:	0030 006c 
2b86:	4279 0030 0024 	        clrw 0x300024         ;dst y
2b8c:	08f8 0000 552a 	        bset #0,0x552a
2b92:	08f8 0002 552a 	        bset #2,0x552a
2b98:	31fc 0002 60d4 	        movew #2,0x60d4
2b9e:	6100 1c5a      	        bsrw 0x47fa
2ba2:	4e75           	        rts
2ba4:	31fc 80ab 60d4 	        movew #-32597,0x60d4
2baa:	6100 1c4e      	        bsrw 0x47fa
2bae:	6000 e4b4      	        braw 0x1064
2bb2:	31fc 80ac 60d4 	        movew #-32596,0x60d4
2bb8:	6100 1c40      	        bsrw 0x47fa
2bbc:	6000 e4a6      	        braw 0x1064

2bc0:	4238 5f94      	        clrb 0x5f94
2bc4:	08f8 0001 5f94 	        bset #1,0x5f94   ;flag src bitmap
2bca:	31fc 0001 5f96 	        movew #1,0x5f96  ;bba command
2bd0:	31fc 0003 5f98 	        movew #3,0x5f98  ;function
2bd6:	31fc 0040 602c 	        movew #64,0x602c ;dst w
2bdc:	31fc 0008 6036 	        movew #8,0x6036  ;dst W
2be2:	31fc 0040 602e 	        movew #64,0x602e ;dst h
2be8:	4278 6032      	        clrw 0x6032      ;dst x
2bec:	4278 6034      	        clrw 0x6034      ;dst y
2bf0:	4278 603e      	        clrw 0x603e      ;clip count
2bf4:	6100 0f46      	        bsrw 0x3b3c	 ;do one clip
2bf8:	4e75           	        rts

2bfa:	48e7 e000      	        moveml %d0-%d2,%sp@-
2bfe:	3038 6026      	        movew 0x6026,%d0 ;msk h
2c02:	31c0 552e      	        movew %d0,0x552e
2c06:	3038 6024      	        movew 0x6024,%d0 ;msk w
2c0a:	31c0 552c      	        movew %d0,0x552c
2c0e:	4240           	        clrw %d0
2c10:	323c 043f      	        movew #1087,%d1
2c14:	3438 6102      	        movew 0x6102,%d2 ;tip x
2c18:	9478 6106      	        subw 0x6106,%d2  ;center x
2c1c:	6f04           	        bles 0x2c22
2c1e:	d042           	        addw %d2,%d0
2c20:	6002           	        bras 0x2c24
2c22:	d242           	        addw %d2,%d1
2c24:	31c0 5bb6      	        movew %d0,0x5bb6
2c28:	31c1 5bb8      	        movew %d1,0x5bb8
2c2c:	4240           	        clrw %d0
2c2e:	323c 035f      	        movew #863,%d1
2c32:	3438 6104      	        movew 0x6104,%d2 ;tip y
2c36:	9478 6108      	        subw 0x6108,%d2  ;center y
2c3a:	6f04           	        bles 0x2c40
2c3c:	d042           	        addw %d2,%d0
2c3e:	6002           	        bras 0x2c42
2c40:	d242           	        addw %d2,%d1
2c42:	31c0 5bba      	        movew %d0,0x5bba
2c46:	31c1 5bbc      	        movew %d1,0x5bbc
2c4a:	4cdf 0007      	        moveml %sp@+,%d0-%d2
2c4e:	4e75           	        rts

;load cursor - process source
2c50:	2200           	        movel %d0,%d1
2c52:	e688           	        lsrl #3,%d0
2c54:	0241 0007      	        andiw #7,%d1
2c58:	e549           	        lslw #2,%d1
2c5a:	0c41 000c      	        cmpiw #12,%d1
2c5e:	640e           	        bccs 0x2c6e
2c60:	227c 0000 2c7c 	        moveal #11388,%a1
2c66:	2271 1000      	        moveal %a1@(0,%d1:w),%a1
2c6a:	4e91           	        jsr %a1@
2c6c:	4e75           	        rts
2c6e:	31fc 8020 60d4 	        movew #-32736,0x60d4
2c74:	6100 1b84      	        bsrw 0x47fa
2c78:	6000 e3ea      	        braw 0x1064

2c7c:	0000 383a
2c80:	0000 3870
2c84:	0000 2c88

;cursor source 2, tile
2c88:	08f8 0002 5f94 	        bset #2,0x5f94  ;flag src tile
2c8e:	0078 0010 5f96 	        oriw #16,0x5f96 ;bba command
2c94:	227c 0000 2cb0 	        moveal #11440,%a1
2c9a:	6100 0c88      	        bsrw 0x3924
2c9e:	227c 0000 60b0 	        moveal #24752,%a1 ;copy to ram
2ca4:	323c 000f      	        movew #15,%d1
2ca8:	32da           	        movew %a2@+,%a1@+
2caa:	51c9 fffc      	        dbf %d1,0x2ca8
2cae:	4e75           	        rts

2cb0:	80a1           	        orl %a1@-,%d0
2cb2:	80a2           	        orl %a2@-,%d0
2cb4:	80a3           	        orl %a3@-,%d0

;process blink/tip/center
2cb6:	3218           	        movew %a0@+,%d1  ;blink
2cb8:	0801 0001      	        btst #1,%d1
2cbc:	6620           	        bnes 0x2cde
2cbe:	4278 6102      	        clrw 0x6102      ;tip x
2cc2:	4278 6104      	        clrw 0x6104      ;tip y
2cc6:	3238 6024      	        movew 0x6024,%d1 ;msk w
2cca:	5341           	        subqw #1,%d1
2ccc:	31c1 6106      	        movew %d1,0x6106 ;center x
2cd0:	3238 6026      	        movew 0x6026,%d1 ;msk h
2cd4:	5341           	        subqw #1,%d1
2cd6:	31c1 6108      	        movew %d1,0x6108 ;center y
2cda:	5048           	        addqw #8,%a0
2cdc:	6038           	        bras 0x2d16
2cde:	3218           	        movew %a0@+,%d1 ;tip x
2ce0:	6b36           	        bmis 0x2d18
2ce2:	b278 6024      	        cmpw 0x6024,%d1 ;msk w
2ce6:	6c30           	        bges 0x2d18
2ce8:	31c1 6102      	        movew %d1,0x6102
2cec:	3218           	        movew %a0@+,%d1 ;tip y
2cee:	6b36           	        bmis 0x2d26
2cf0:	b278 6026      	        cmpw 0x6026,%d1 ;msk h
2cf4:	6c30           	        bges 0x2d26
2cf6:	31c1 6104      	        movew %d1,0x6104
2cfa:	3218           	        movew %a0@+,%d1 ;center x
2cfc:	6b36           	        bmis 0x2d34
2cfe:	b278 6024      	        cmpw 0x6024,%d1 ;msk w
2d02:	6c30           	        bges 0x2d34
2d04:	31c1 6106      	        movew %d1,0x6106
2d08:	3218           	        movew %a0@+,%d1 ;center y
2d0a:	6b36           	        bmis 0x2d42
2d0c:	b278 6026      	        cmpw 0x6026,%d1 ;msk h
2d10:	6c30           	        bges 0x2d42
2d12:	31c1 6108      	        movew %d1,0x6108
2d16:	4e75           	        rts

2d18:	31fc 80a7 60d4 	        movew #-32601,0x60d4
2d1e:	6100 1ada      	        bsrw 0x47fa
2d22:	6000 e340      	        braw 0x1064
2d26:	31fc 80a8 60d4 	        movew #-32600,0x60d4
2d2c:	6100 1acc      	        bsrw 0x47fa
2d30:	6000 e332      	        braw 0x1064
2d34:	31fc 80a9 60d4 	        movew #-32599,0x60d4
2d3a:	6100 1abe      	        bsrw 0x47fa
2d3e:	6000 e324      	        braw 0x1064
2d42:	31fc 80aa 60d4 	        movew #-32598,0x60d4
2d48:	6100 1ab0      	        bsrw 0x47fa
2d4c:	6000 e316      	        braw 0x1064

;set cursor position
2d50:	2078 5f8c      	        moveal 0x5f8c,%a0
2d54:	0c78 0001 60e4 	        cmpiw #1,0x60e4       ;cursor device
2d5a:	661a           	        bnes 0x2d76
2d5c:	3018           	        movew %a0@+,%d0       ;x
2d5e:	3218           	        movew %a0@+,%d1       ;y
2d60:	48b8 0003 60f4 	        movemw %d0-%d1,0x60f4 ;cursor position
2d66:	6100 2794      	        bsrw 0x54fc
2d6a:	31fc 0002 60d4 	        movew #2,0x60d4       ;reason
2d70:	6100 1a88      	        bsrw 0x47fa           ;reply result
2d74:	4e75           	        rts
2d76:	31fc 803a 60d4 	        movew #-32710,0x60d4
2d7c:	6100 1a7c      	        bsrw 0x47fa
2d80:	6000 e2e2      	        braw 0x1064

;attach cursor
2d84:	2078 5f8c      	        moveal 0x5f8c,%a0
2d88:	3018           	        movew %a0@+,%d0   ;device
2d8a:	31c0 60e4      	        movew %d0,0x60e4
2d8e:	670c           	        beqs 0x2d9c
2d90:	0c40 0001      	        cmpiw #1,%d0
2d94:	6618           	        bnes 0x2dae
2d96:	21f8 60f0 60fe 	        movel 0x60f0,0x60fe
2d9c:	08f8 0000 552a 	        bset #0,0x552a
2da2:	31fc 0002 60d4 	        movew #2,0x60d4
2da8:	6100 1a50      	        bsrw 0x47fa
2dac:	4e75           	        rts
2dae:	31fc 803b 60d4 	        movew #-32709,0x60d4
2db4:	6100 1a44      	        bsrw 0x47fa
2db8:	6000 e2aa      	        braw 0x1064
2dbc:	2078 5f8c      	        moveal 0x5f8c,%a0
2dc0:	4cb8 0003 610a 	        movemw 0x610a,%d0-%d1
2dc6:	30c0           	        movew %d0,%a0@+
2dc8:	30c1           	        movew %d1,%a0@+
2dca:	31fc 0002 60d4 	        movew #2,0x60d4
2dd0:	6100 1a28      	        bsrw 0x47fa
2dd4:	4e75           	        rts

;move object
2dd6:	2078 5f8c      	        moveal 0x5f8c,%a0
2dda:	3018           	        movew %a0@+,%d0
2ddc:	e548           	        lslw #2,%d0
2dde:	0c40 0010      	        cmpiw #16,%d0
2de2:	640e           	        bccs 0x2df2
2de4:	227c 0000 2e00 	        moveal #11776,%a1
2dea:	2271 0000      	        moveal %a1@(0000000000000000,%d0:w),%a1
2dee:	4e91           	        jsr %a1@
2df0:	4e75           	        rts
2df2:	31fc 803d 60d4 	        movew #-32707,0x60d4
2df8:	6100 1a00      	        bsrw 0x47fa
2dfc:	6000 e266      	        braw 0x1064
2e00:	0000 2e10      	        orib #16,%d0
2e04:	0000 2e10      	        orib #16,%d0
2e08:	0000 2e5a      	        orib #90,%d0
2e0c:	0000 2ed2      	        orib #-46,%d0
2e10:	2018           	        movel %a0@+,%d0
2e12:	4840           	        swap %d0
2e14:	6f36           	        bles 0x2e4c
2e16:	2218           	        movel %a0@+,%d1
2e18:	4841           	        swap %d1
2e1a:	2241           	        moveal %d1,%a1
2e1c:	2218           	        movel %a0@+,%d1
2e1e:	4841           	        swap %d1
2e20:	2441           	        moveal %d1,%a2
2e22:	4a38 60e2      	        tstb 0x60e2
2e26:	66fa           	        bnes 0x2e22
2e28:	b5c9           	        cmpal %a1,%a2
2e2a:	620a           	        bhis 0x2e36
2e2c:	6712           	        beqs 0x2e40
2e2e:	34d9           	        movew %a1@+,%a2@+
2e30:	5580           	        subql #2,%d0
2e32:	6efa           	        bgts 0x2e2e
2e34:	600a           	        bras 0x2e40
2e36:	d3c0           	        addal %d0,%a1
2e38:	d5c0           	        addal %d0,%a2
2e3a:	3521           	        movew %a1@-,%a2@-
2e3c:	5580           	        subql #2,%d0
2e3e:	6efa           	        bgts 0x2e3a
2e40:	31fc 0002 60d4 	        movew #2,0x60d4
2e46:	6100 19b2      	        bsrw 0x47fa
2e4a:	4e75           	        rts
2e4c:	31fc 803c 60d4 	        movew #-32708,0x60d4
2e52:	6100 19a6      	        bsrw 0x47fa
2e56:	6000 e20c      	        braw 0x1064
2e5a:	2018           	        movel %a0@+,%d0
2e5c:	4840           	        swap %d0
2e5e:	6f56           	        bles 0x2eb6
2e60:	0c80 0000 0040 	        cmpil #64,%d0
2e66:	624e           	        bhis 0x2eb6
2e68:	2218           	        movel %a0@+,%d1
2e6a:	4841           	        swap %d1
2e6c:	2241           	        moveal %d1,%a1
2e6e:	3218           	        movew %a0@+,%d1
2e70:	0c41 0002      	        cmpiw #2,%d1
2e74:	664e           	        bnes 0x2ec4
2e76:	3219           	        movew %a1@+,%d1
2e78:	1401           	        moveb %d1,%d2
2e7a:	6f3a           	        bles 0x2eb6
2e7c:	0c02 0040      	        cmpib #64,%d2
2e80:	6234           	        bhis 0x2eb6
2e82:	e049           	        lsrw #8,%d1
2e84:	11c1 4b41      	        moveb %d1,0x4b41
2e88:	6100 1856      	        bsrw 0x46e0
2e8c:	5302           	        subqb #1,%d2
2e8e:	6712           	        beqs 0x2ea2
2e90:	5580           	        subql #2,%d0
2e92:	6f0e           	        bles 0x2ea2
2e94:	3219           	        movew %a1@+,%d1
2e96:	11c1 4b41      	        moveb %d1,0x4b41
2e9a:	6100 1844      	        bsrw 0x46e0
2e9e:	5302           	        subqb #1,%d2
2ea0:	66e0           	        bnes 0x2e82
2ea2:	08f9 0000 0080 0007     bset #0,0x800007
2eaa:	31fc 0002 60d4 	        movew #2,0x60d4
2eb0:	6100 1948      	        bsrw 0x47fa
2eb4:	4e75           	        rts
2eb6:	31fc 803c 60d4 	        movew #-32708,0x60d4
2ebc:	6100 193c      	        bsrw 0x47fa
2ec0:	6000 e1a2      	        braw 0x1064
2ec4:	31fc 803e 60d4 	        movew #-32706,0x60d4
2eca:	6100 192e      	        bsrw 0x47fa
2ece:	6000 e194      	        braw 0x1064
2ed2:	31fc 8000 60d4 	        movew #-32768,0x60d4
2ed8:	6100 1920      	        bsrw 0x47fa
2edc:	6000 e186      	        braw 0x1064

;10 report_status
2ee0:	2078 5f8c      	        moveal 0x5f8c,%a0
2ee4:	223c 0000 0100 	        movel #256,%d1
2eea:	4841           	        swap %d1
2eec:	20c1           	        movel %d1,%a0@+  ;device type
2eee:	30fc 0003      	        movew #3,%a0@+   ;device version
2ef2:	30fc 0235      	        movew #565,%a0@+ ;ucode version
2ef6:	223c 0010 0000 	        movel #1048576,%d1 ;visible frame buf
2efc:	4841           	        swap %d1
2efe:	20c1           	        movel %d1,%a0@+   ;address
2f00:	30fc 0440      	        movew #1088,%a0@+ ;width
2f04:	30fc 0360      	        movew #864,%a0@+  ;height
2f08:	30fc 0001      	        movew #1,%a0@+    ;bits per pixel
2f0c:	223c 0013 9600 	        movel #1283584,%d1 ;free framebuffer
2f12:	4841           	        swap %d1
2f14:	20c1           	        movel %d1,%a0@+
2f16:	223c 0004 6a00 	        movel #289280,%d1
2f1c:	4841           	        swap %d1
2f1e:	20c1           	        movel %d1,%a0@+  ;free program memory
2f20:	223c 0000 6930 	        movel #26928,%d1
2f26:	4841           	        swap %d1
2f28:	20c1           	        movel %d1,%a0@+
2f2a:	4298           	        clrl %a0@+
2f2c:	223c 0008 0000 	        movel #524288,%d1 ;host memory (unibus window)
2f32:	4841           	        swap %d1
2f34:	20c1           	        movel %d1,%a0@+
2f36:	223c 0004 0000 	        movel #262144,%d1
2f3c:	4841           	        swap %d1
2f3e:	2081           	        movel %d1,%a0@
2f40:	31fc 0002 60d4 	        movew #2,0x60d4
2f46:	6100 18b2      	        bsrw 0x47fa
2f4a:	4e75           	        rts

;fill area
2f82:	6100      	        bsrw 0x37c2
2f86:	2078 5f8c      	        moveal 0x5f8c,%a0
2f8a:	2038 5f90      	        movel 0x5f90,%d0 ;modifier
2f8e:	6100 0600      	        bsrw 0x3590 ;process source
2f92:	e688           	        lsrl #3,%d0
2f94:	6100 0a4e      	        bsrw 0x39e4 ;process destination
2f98:	6100 0a68      	        bsrw 0x3a02 ;process map
2f9c:	6100 0638      	        bsrw 0x35d6
2fa0:	6100 0b6a      	        bsrw 0x3b0c
2fa4:	6100 0710      	        bsrw 0x36b6
2fa8:	31f8 6032 60d0 	        movew 0x6032,0x60d0 ;dst x
2fae:	31f8 6034 60d2 	        movew 0x6034,0x60d2 ;dst y
2fb4:	6100 0786      	        bsrw 0x373c
2fb8:	6100 21d4      	        bsrw 0x518e
2fbc:	6100 0198      	        bsrw 0x3156
2fc0:	6100 001c      	        bsrw 0x2fde
2fc4:	6100 059a      	        bsrw 0x3560 ;do one clip
2fc8:	6100 052a      	        bsrw 0x34f4
2fcc:	4a38 60e2      	        tstb 0x60e2
2fd0:	66fa           	        bnes 0x2fcc
2fd2:	31fc 0002 60d4 	        movew #2,0x60d4
2fd8:	6100 1820      	        bsrw 0x47fa
2fdc:	4e75           	        rts

2fde:	48e7 f8c0      	        moveml %d0-%d4/%a0-%a1,%sp@-
2fe2:	2078 6048      	        moveal 0x6048,%a0 ;segment list address
2fe6:	2248           	        moveal %a0,%a1
2fe8:	51c4           	        sf %d4
2fea:	31f8 2f66 2f64 	        movew 0x2f66,0x2f64
2ff0:	31f8 2f6e 2f6c 	        movew 0x2f6e,0x2f6c
2ff6:	31f8 2f68 2f66 	        movew 0x2f68,0x2f66
2ffc:	31f8 2f70 2f6e 	        movew 0x2f70,0x2f6e
3002:	3018           	        movew %a0@+,%d0   ;vertex x
3004:	3218           	        movew %a0@+,%d1   ;vertex y
3006:	3418           	        movew %a0@+,%d2   ;vertex flags
3008:	0802 0000      	        btst #0,%d2
300c:	6708           	        beqs 0x3016       ;relative vertex?
300e:	d078 2f66      	        addw 0x2f66,%d0
3012:	d278 2f6e      	        addw 0x2f6e,%d1
3016:	31c0 2f68      	        movew %d0,0x2f68
301a:	31c1 2f70      	        movew %d1,0x2f70
301e:	0802 0004      	        btst #4,%d2
3022:	670a           	        beqs 0x302e       ;vertex end closed?
3024:	4a38 2f61      	        tstb 0x2f61
3028:	6700 011e      	        beqw 0x3148
302c:	c149           	        exg %a0,%a1
302e:	0802 0001      	        btst #1,%d2
3032:	664c           	        bnes 0x3080       ;draw?
3034:	4a38 2f60      	        tstb 0x2f60
3038:	6646           	        bnes 0x3080
303a:	0802 0002      	        btst #2,%d2       ;curved segment?
303e:	6608           	        bnes 0x3048
3040:	6100 018c      	        bsrw 0x31ce       ;straight
3044:	6000 003a      	        braw 0x3080
3048:	4a04           	        tstb %d4          ;curved segment
304a:	6610           	        bnes 0x305c
304c:	3038 2f68      	        movew 0x2f68,%d0
3050:	3238 2f70      	        movew 0x2f70,%d1
3054:	0c78 0001 2f80 	        cmpiw #1,0x2f80   ;segment list count
305a:	6718           	        beqs 0x3074       ;just one vertex?
305c:	3010           	        movew %a0@,%d0    ;get next vertex
305e:	3228 0002      	        movew %a0@(2),%d1
3062:	3628 0004      	        movew %a0@(4),%d3
3066:	0803 0000      	        btst #0,%d3
306a:	6708           	        beqs 0x3074
306c:	d078 2f68      	        addw 0x2f68,%d0
3070:	d278 2f70      	        addw 0x2f70,%d1
3074:	31c0 2f6a      	        movew %d0,0x2f6a  ;last vertex
3078:	31c1 2f72      	        movew %d1,0x2f72
307c:	6100 016e      	        bsrw 0x31ec
3080:	0802 0003      	        btst #3,%d2
3084:	6722           	        beqs 0x30a8       ;start closed?
3086:	4a38 2f61      	        tstb 0x2f61
308a:	6600 00bc      	        bnew 0x3148
308e:	50c4           	        st %d4
3090:	50f8 2f60      	        st 0x2f60
3094:	50f8 2f61      	        st 0x2f61
3098:	31f8 2f68 2f74 	        movew 0x2f68,0x2f74
309e:	31f8 2f70 2f76 	        movew 0x2f70,0x2f76
30a4:	2248           	        moveal %a0,%a1
30a6:	6016           	        bras 0x30be
30a8:	4a38 2f60      	        tstb 0x2f60
30ac:	6710           	        beqs 0x30be
30ae:	50f8 2f63      	        st 0x2f63
30b2:	4278 2f7c      	        clrw 0x2f7c
30b6:	4278 2f7e      	        clrw 0x2f7e
30ba:	51f8 2f60      	        sf 0x2f60
30be:	0802 0004      	        btst #4,%d2       ;end closed?
30c2:	6726           	        beqs 0x30ea
30c4:	4a38 2f61      	        tstb 0x2f61
30c8:	6700 007e      	        beqw 0x3148
30cc:	50f8 2f62      	        st 0x2f62
30d0:	3038 2f74      	        movew 0x2f74,%d0
30d4:	b078 2f68      	        cmpw 0x2f68,%d0
30d8:	666e           	        bnes 0x3148
30da:	3238 2f76      	        movew 0x2f76,%d1
30de:	b278 2f70      	        cmpw 0x2f70,%d1
30e2:	6664           	        bnes 0x3148
30e4:	5278 2f80      	        addqw #1,0x2f80   ;increment segment count
30e8:	604a           	        bras 0x3134
30ea:	4a38 2f62      	        tstb 0x2f62
30ee:	6744           	        beqs 0x3134
30f0:	51f8 2f62      	        sf 0x2f62
30f4:	51f8 2f61      	        sf 0x2f61
30f8:	c149           	        exg %a0,%a1
30fa:	3038 2f50      	        movew 0x2f50,%d0
30fe:	d078 60d0      	        addw 0x60d0,%d0
3102:	3238 2f52      	        movew 0x2f52,%d1
3106:	d278 60d2      	        addw 0x60d2,%d1
310a:	3438 2f7a      	        movew 0x2f7a,%d2
310e:	3638 2f7e      	        movew 0x2f7e,%d3
3112:	b543           	        eorw %d2,%d3
3114:	6a10           	        bpls 0x3126
3116:	3438 2f78      	        movew 0x2f78,%d2
311a:	b478 2f7c      	        cmpw 0x2f7c,%d2
311e:	6614           	        bnes 0x3134
3120:	6100 032e      	        bsrw 0x3450
3124:	600e           	        bras 0x3134
3126:	3438 2f78      	        movew 0x2f78,%d2
312a:	b478 2f7c      	        cmpw 0x2f7c,%d2
312e:	6704           	        beqs 0x3134
3130:	6100 031e      	        bsrw 0x3450
3134:	5378 2f80      	        subqw #1,0x2f80   ;decrement segment count
3138:	6e00 feb0      	        bgtw 0x2fea
313c:	4a38 2f61      	        tstb 0x2f61       ;no more segments
3140:	6606           	        bnes 0x3148
3142:	4cdf 031f      	        moveml %sp@+,%d0-%d4/%a0-%a1
3146:	4e75           	        rts
3148:	31fc 8073 60d4 	        movew #-32653,0x60d4
314e:	6100 16aa      	        bsrw 0x47fa
3152:	6000 df10      	        braw 0x1064

3156:	4278 2f4c      	        clrw 0x2f4c
315a:	4278 2f4e      	        clrw 0x2f4e
315e:	4278 2f50      	        clrw 0x2f50
3162:	4278 2f52      	        clrw 0x2f52
3166:	4278 2f54      	        clrw 0x2f54
316a:	4278 2f56      	        clrw 0x2f56
316e:	4278 2f58      	        clrw 0x2f58
3172:	4278 2f5a      	        clrw 0x2f5a
3176:	4278 2f5c      	        clrw 0x2f5c
317a:	4278 2f5e      	        clrw 0x2f5e
317e:	51f8 2f60      	        sf 0x2f60
3182:	51f8 2f61      	        sf 0x2f61
3186:	51f8 2f62      	        sf 0x2f62
318a:	50f8 2f63      	        st 0x2f63
318e:	4278 2f64      	        clrw 0x2f64
3192:	4278 2f66      	        clrw 0x2f66
3196:	4278 2f68      	        clrw 0x2f68
319a:	4278 2f6a      	        clrw 0x2f6a
319e:	4278 2f6c      	        clrw 0x2f6c
31a2:	4278 2f6e      	        clrw 0x2f6e
31a6:	4278 2f70      	        clrw 0x2f70
31aa:	4278 2f72      	        clrw 0x2f72
31ae:	4278 2f74      	        clrw 0x2f74
31b2:	4278 2f76      	        clrw 0x2f76
31b6:	4278 2f78      	        clrw 0x2f78
31ba:	4278 2f7a      	        clrw 0x2f7a
31be:	4278 2f7c      	        clrw 0x2f7c
31c2:	4278 2f7e      	        clrw 0x2f7e
31c6:	31f8 604c 2f80 	        movew 0x604c,0x2f80 ;segment list count
31cc:	4e75           	        rts

;draw curved line
31ce:	31f8 2f66 2f4c 	        movew 0x2f66,0x2f4c
31d4:	31f8 2f6e 2f4e 	        movew 0x2f6e,0x2f4e
31da:	31f8 2f68 2f50 	        movew 0x2f68,0x2f50
31e0:	31f8 2f70 2f52 	        movew 0x2f70,0x2f52
31e6:	6100 010c      	        bsrw 0x32f4
31ea:	4e75           	        rts

;draw last vertex
31ec:	48e7 fc80      	        moveml %d0-%d5/%a0,%sp@-
31f0:	3038 2f68      	        movew 0x2f68,%d0
31f4:	9078 2f66      	        subw 0x2f66,%d0
31f8:	6900 00de      	        bvsw 0x32d8
31fc:	6a02           	        bpls 0x3200
31fe:	4440           	        negw %d0
3200:	3238 2f70      	        movew 0x2f70,%d1
3204:	9278 2f6e      	        subw 0x2f6e,%d1
3208:	6900 00dc      	        bvsw 0x32e6
320c:	6a02           	        bpls 0x3210
320e:	4441           	        negw %d1
3210:	b041           	        cmpw %d1,%d0
3212:	6c02           	        bges 0x3216
3214:	3001           	        movew %d1,%d0
3216:	31f8 2f66 2f50 	        movew 0x2f66,0x2f50
321c:	31f8 2f6e 2f52 	        movew 0x2f6e,0x2f52
3222:	0c40 0001      	        cmpiw #1,%d0
3226:	6f00 008e      	        blew 0x32b6
322a:	6100 04f2      	        bsrw 0x371e
322e:	207c 0000 6170 	        moveal #24944,%a0
3234:	d0c5           	        addaw %d5,%a0
3236:	90fc 0008      	        subaw #8,%a0
323a:	5344           	        subqw #1,%d4
323c:	5344           	        subqw #1,%d4
323e:	31f8 2f50 2f4c 	        movew 0x2f50,0x2f4c
3244:	31f8 2f52 2f4e 	        movew 0x2f52,0x2f4e
324a:	3410           	        movew %a0@,%d2
324c:	3602           	        movew %d2,%d3
324e:	c5f8 2f64      	        mulsw 0x2f64,%d2
3252:	2002           	        movel %d2,%d0
3254:	c7f8 2f6c      	        mulsw 0x2f6c,%d3
3258:	2203           	        movel %d3,%d1
325a:	3428 0002      	        movew %a0@(2),%d2
325e:	3602           	        movew %d2,%d3
3260:	c5f8 2f66      	        mulsw 0x2f66,%d2
3264:	d082           	        addl %d2,%d0
3266:	c7f8 2f6e      	        mulsw 0x2f6e,%d3
326a:	d283           	        addl %d3,%d1
326c:	3428 0004      	        movew %a0@(4),%d2
3270:	3602           	        movew %d2,%d3
3272:	c5f8 2f68      	        mulsw 0x2f68,%d2
3276:	d082           	        addl %d2,%d0
3278:	c7f8 2f70      	        mulsw 0x2f70,%d3
327c:	d283           	        addl %d3,%d1
327e:	3428 0006      	        movew %a0@(6),%d2
3282:	3602           	        movew %d2,%d3
3284:	c5f8 2f6a      	        mulsw 0x2f6a,%d2
3288:	d082           	        addl %d2,%d0
328a:	c7f8 2f72      	        mulsw 0x2f72,%d3
328e:	d283           	        addl %d3,%d1
3290:	e380           	        asll #1,%d0
3292:	0680 0000 8000 	        addil #32768,%d0
3298:	4840           	        swap %d0
329a:	31c0 2f50      	        movew %d0,0x2f50
329e:	e381           	        asll #1,%d1
32a0:	0681 0000 8000 	        addil #32768,%d1
32a6:	4841           	        swap %d1
32a8:	31c1 2f52      	        movew %d1,0x2f52
32ac:	6100 0046      	        bsrw 0x32f4
32b0:	d0c5           	        addaw %d5,%a0
32b2:	51cc ff8a      	        dbf %d4,0x323e
32b6:	31f8 2f50 2f4c 	        movew 0x2f50,0x2f4c
32bc:	31f8 2f52 2f4e 	        movew 0x2f52,0x2f4e
32c2:	31f8 2f68 2f50 	        movew 0x2f68,0x2f50
32c8:	31f8 2f70 2f52 	        movew 0x2f70,0x2f52
32ce:	6100 0024      	        bsrw 0x32f4
32d2:	4cdf 013f      	        moveml %sp@+,%d0-%d5/%a0
32d6:	4e75           	        rts
32d8:	31fc 8074 60d4 	        movew #-32652,0x60d4
32de:	6100 151a      	        bsrw 0x47fa
32e2:	6000 dd80      	        braw 0x1064
32e6:	31fc 8075 60d4 	        movew #-32651,0x60d4
32ec:	6100 150c      	        bsrw 0x47fa
32f0:	6000 dd72      	        braw 0x1064

;draw curved line
32f4:	48e7 fe00      	        moveml %d0-%d6,%sp@-
32f8:	3038 2f50      	        movew 0x2f50,%d0
32fc:	9078 2f4c      	        subw 0x2f4c,%d0
3300:	6900 0132      	        bvsw 0x3434
3304:	6b08           	        bmis 0x330e
3306:	31fc 0001 2f58 	        movew #1,0x2f58
330c:	6008           	        bras 0x3316
330e:	31fc ffff 2f58 	        movew #-1,0x2f58
3314:	4440           	        negw %d0
3316:	3238 2f52      	        movew 0x2f52,%d1
331a:	9278 2f4e      	        subw 0x2f4e,%d1
331e:	6900 0122      	        bvsw 0x3442
3322:	6b08           	        bmis 0x332c
3324:	31fc 0001 2f5a 	        movew #1,0x2f5a
332a:	6008           	        bras 0x3334
332c:	31fc ffff 2f5a 	        movew #-1,0x2f5a
3332:	4441           	        negw %d1
3334:	4a41           	        tstw %d1
3336:	6700 00f2      	        beqw 0x342a
333a:	b041           	        cmpw %d1,%d0
333c:	6d14           	        blts 0x3352
333e:	31c0 2f5c      	        movew %d0,0x2f5c
3342:	31c1 2f5e      	        movew %d1,0x2f5e
3346:	31f8 2f58 2f54 	        movew 0x2f58,0x2f54
334c:	4278 2f56      	        clrw 0x2f56
3350:	6012           	        bras 0x3364
3352:	31c0 2f5e      	        movew %d0,0x2f5e
3356:	31c1 2f5c      	        movew %d1,0x2f5c
335a:	4278 2f54      	        clrw 0x2f54
335e:	31f8 2f5a 2f56 	        movew 0x2f5a,0x2f56
3364:	3838 2f5c      	        movew 0x2f5c,%d4
3368:	6700 00c0      	        beqw 0x342a
336c:	3038 2f4c      	        movew 0x2f4c,%d0
3370:	d078 60d0      	        addw 0x60d0,%d0
3374:	3238 2f4e      	        movew 0x2f4e,%d1
3378:	d278 60d2      	        addw 0x60d2,%d1
337c:	4a38 2f63      	        tstb 0x2f63
3380:	6710           	        beqs 0x3392
3382:	51f8 2f63      	        sf 0x2f63
3386:	31c1 2f78      	        movew %d1,0x2f78
338a:	31f8 2f5a 2f7a 	        movew 0x2f5a,0x2f7a
3390:	6026           	        bras 0x33b8
3392:	3438 2f5a      	        movew 0x2f5a,%d2
3396:	3638 2f7e      	        movew 0x2f7e,%d3
339a:	b543           	        eorw %d2,%d3
339c:	6a0e           	        bpls 0x33ac
339e:	b278 2f7c      	        cmpw 0x2f7c,%d1
33a2:	6614           	        bnes 0x33b8
33a4:	6100 00aa      	        bsrw 0x3450
33a8:	5344           	        subqw #1,%d4
33aa:	600c           	        bras 0x33b8
33ac:	b278 2f7c      	        cmpw 0x2f7c,%d1
33b0:	6706           	        beqs 0x33b8
33b2:	6100 009c      	        bsrw 0x3450
33b6:	5344           	        subqw #1,%d4
33b8:	31c1 2f7c      	        movew %d1,0x2f7c
33bc:	31f8 2f5a 2f7e 	        movew 0x2f5a,0x2f7e
33c2:	5344           	        subqw #1,%d4
33c4:	6d64           	        blts 0x342a
33c6:	3438 2f5c      	        movew 0x2f5c,%d2
33ca:	4442           	        negw %d2
33cc:	48c2           	        extl %d2
33ce:	4285           	        clrl %d5
33d0:	4286           	        clrl %d6
33d2:	3a38 2f5c      	        movew 0x2f5c,%d5
33d6:	3c38 2f5e      	        movew 0x2f5e,%d6
33da:	e38d           	        lsll #1,%d5
33dc:	e38e           	        lsll #1,%d6
33de:	d486           	        addl %d6,%d2
33e0:	4a78 2f58      	        tstw 0x2f58
33e4:	6d1a           	        blts 0x3400
33e6:	4a82           	        tstl %d2
33e8:	6a0a           	        bpls 0x33f4
33ea:	d078 2f54      	        addw 0x2f54,%d0
33ee:	d278 2f56      	        addw 0x2f56,%d1
33f2:	6024           	        bras 0x3418
33f4:	9485           	        subl %d5,%d2
33f6:	d078 2f58      	        addw 0x2f58,%d0
33fa:	d278 2f5a      	        addw 0x2f5a,%d1
33fe:	6018           	        bras 0x3418
3400:	4a82           	        tstl %d2
3402:	6e0a           	        bgts 0x340e
3404:	d078 2f54      	        addw 0x2f54,%d0
3408:	d278 2f56      	        addw 0x2f56,%d1
340c:	600a           	        bras 0x3418
340e:	9485           	        subl %d5,%d2
3410:	d078 2f58      	        addw 0x2f58,%d0
3414:	d278 2f5a      	        addw 0x2f5a,%d1
3418:	b278 2f7c      	        cmpw 0x2f7c,%d1
341c:	6708           	        beqs 0x3426
341e:	6100 0030      	        bsrw 0x3450
3422:	31c1 2f7c      	        movew %d1,0x2f7c
3426:	51cc ffb6      	        dbf %d4,0x33de
342a:	6100 1f7e      	        bsrw 0x53aa
342e:	4cdf 007f      	        moveml %sp@+,%d0-%d6
3432:	4e75           	        rts
3434:	31fc 8074 60d4 	        movew #-32652,0x60d4
343a:	6100 13be      	        bsrw 0x47fa
343e:	6000 dc24      	        braw 0x1064
3442:	31fc 8075 60d4 	        movew #-32651,0x60d4
3448:	6100 13b0      	        bsrw 0x47fa
344c:	6000 dc16      	        braw 0x1064
3450:	3f03           	        movew %d3,%sp@-
3452:	b278 36b2      	        cmpw 0x36b2,%d1
3456:	6d1a           	        blts 0x3472
3458:	b278 36b4      	        cmpw 0x36b4,%d1
345c:	6e14           	        bgts 0x3472
345e:	b078 36a6      	        cmpw 0x36a6,%d0
3462:	6d0e           	        blts 0x3472
3464:	3638 36ac      	        movew 0x36ac,%d3
3468:	b043           	        cmpw %d3,%d0
346a:	6c02           	        bges 0x346e
346c:	3600           	        movew %d0,%d3
346e:	6100 0006      	        bsrw 0x3476
3472:	361f           	        movew %sp@+,%d3
3474:	4e75           	        rts
3476:	48e7 0f80      	        moveml %d4-%a0,%sp@-
347a:	207c 0011 cb00 	        moveal #1166080,%a0
3480:	d0f8 36a8      	        addaw 0x36a8,%a0
3484:	3838 6036      	        movew 0x6036,%d4 ;dst W
3488:	c9c1           	        mulsw %d1,%d4
348a:	d1c4           	        addal %d4,%a0
348c:	3c03           	        movew %d3,%d6
348e:	3838 36a6      	        movew 0x36a6,%d4 ;x
3492:	0244 000f      	        andiw #15,%d4
3496:	672c           	        beqs 0x34c4
3498:	3a3c ffff      	        movew #-1,%d5
349c:	e96d           	        lslw %d4,%d5
349e:	3e38 36a6      	        movew 0x36a6,%d7
34a2:	b747           	        eorw %d3,%d7
34a4:	0247 fff0      	        andiw #-16,%d7
34a8:	6610           	        bnes 0x34ba
34aa:	0246 000f      	        andiw #15,%d6
34ae:	3e3c ffff      	        movew #-1,%d7
34b2:	ed6f           	        lslw %d6,%d7
34b4:	bf45           	        eorw %d7,%d5
34b6:	bb50           	        eorw %d5,%a0@
34b8:	6034           	        bras 0x34ee
34ba:	bb58           	        eorw %d5,%a0@+
34bc:	0444 0010      	        subiw #16,%d4
34c0:	4444           	        negw %d4
34c2:	9c44           	        subw %d4,%d6
34c4:	9c78 36a6      	        subw 0x36a6,%d6
34c8:	e84e           	        lsrw #4,%d6
34ca:	670c           	        beqs 0x34d8
34cc:	3a3c ffff      	        movew #-1,%d5
34d0:	5346           	        subqw #1,%d6
34d2:	bb58           	        eorw %d5,%a0@+
34d4:	51ce fffc      	        dbf %d6,0x34d2
34d8:	3803           	        movew %d3,%d4
34da:	0244 000f      	        andiw #15,%d4
34de:	670e           	        beqs 0x34ee
34e0:	0444 0010      	        subiw #16,%d4
34e4:	4444           	        negw %d4
34e6:	3a3c ffff      	        movew #-1,%d5
34ea:	e86d           	        lsrw %d4,%d5
34ec:	bb50           	        eorw %d5,%a0@
34ee:	4cdf 01f0      	        moveml %sp@+,%d4-%a0
34f2:	4e75           	        rts

34f4:	3f00           	        movew %d0,%sp@-
34f6:	08f8 0003 5f94 	        bset #3,0x5f94 ;flag mask bitmap
34fc:	0078 0002 5f96 	        oriw #2,0x5f96 ;bba command
3502:	21fc 0011 cb00 6014     movel #1166080,0x6014 ;msk address
350a:	31f8 602c 6018 	        movew 0x602c,0x6018 ;dst->msk w
3510:	31f8 6036 6022 	        movew 0x6036,0x6022 ;dst->msk W
3516:	31f8 602e 601a 	        movew 0x602e,0x601a ;dst->msk h
351c:	31f8 36a6 601e 	        movew 0x36a6,0x601e ;->msk x
3522:	31f8 36b2 6020 	        movew 0x36b2,0x6020 ;->msk y
3528:	31f8 36a6 6032 	        movew 0x36a6,0x6032 ;->dst x
352e:	31f8 36b2 6034 	        movew 0x36b2,0x6034 ;->dst y
3534:	3038 36ac      	        movew 0x36ac,%d0
3538:	9078 36a6      	        subw 0x36a6,%d0
353c:	5240           	        addqw #1,%d0
353e:	31c0 3b36      	        movew %d0,0x3b36    ;msk w
3542:	3038 36b4      	        movew 0x36b4,%d0
3546:	9078 36b2      	        subw 0x36b2,%d0
354a:	5240           	        addqw #1,%d0
354c:	31c0 3b38      	        movew %d0,0x3b38    ;msk h
3550:	6100 297a      	        bsrw 0x5ecc
3554:	6100 0824      	        bsrw 0x3d7a         ;compute ending addresses
3558:	6100 0860      	        bsrw 0x3dba         ;write to bba scratchpad
355c:	301f           	        movew %sp@+,%d0
355e:	4e75           	        rts

;fill area - do one clip
3560:	2f38 6028      	        movel 0x6028,%sp@- ;dst address
3564:	50f8 1292      	        st 0x1292
3568:	4a38 60e2      	        tstb 0x60e2
356c:	66fa           	        bnes 0x3568
356e:	33fc 0040 0030 0000     movew #64,0x300000 ;bba command
3576:	33fc 000f 0030 001e     movew #15,0x30001e ;function: 1
357e:	21fc 0011 cb00 6028     movel #1166080,0x6028 ;dst address
3586:	6100 de18      	        bsrw 0x13a0        ;do one clip
358a:	21df 6028      	        movel %sp@+,0x6028 ;dst address
358e:	4e75           	        rts

3590:	2200           	        movel %d0,%d1
3592:	e688           	        lsrl #3,%d0
3594:	0241 0007      	        andiw #7,%d1
3598:	e549           	        lslw #2,%d1
359a:	0c41 000c      	        cmpiw #12,%d1
359e:	640e           	        bccs 0x35ae
35a0:	227c 0000 35bc 	        moveal #13756,%a1
35a6:	2271 1000      	        moveal %a1@(0000000000000000,%d1:w),%a1
35aa:	4e91           	        jsr %a1@
35ac:	4e75           	        rts
35ae:	31fc 8020 60d4 	        movew #-32736,0x60d4
35b4:	6100 1244      	        bsrw 0x47fa
35b8:	6000 daaa      	        braw 0x1064

35bc:	0000 383a      	        orib #58,%d0
35c0:	0000 35c8      	        orib #-56,%d0
35c4:	0000 38e8      	        orib #-24,%d0

;fill area - src bitmap
35c8:	31fc 8070 60d4 	        movew #-32656,0x60d4
35ce:	6100 122a      	        bsrw 0x47fa
35d2:	6000 da90      	        braw 0x1064

;fill area - ?
35d6:	2200           	        movel %d0,%d1
35d8:	e688           	        lsrl #3,%d0
35da:	0241 0007      	        andiw #7,%d1
35de:	e549           	        lslw #2,%d1
35e0:	0c41 0008      	        cmpiw #8,%d1
35e4:	6428           	        bccs 0x360e
35e6:	227c 0000 361c 	        moveal #13852,%a1
35ec:	2271 1000      	        moveal %a1@(0,%d1:w),%a1
35f0:	4e91           	        jsr %a1@
35f2:	4a78 603e      	        tstw 0x603e        ;clip count
35f6:	6714           	        beqs 0x360c
35f8:	2278 603a      	        moveal 0x603a,%a1
35fc:	31d9 6040      	        movew %a1@+,0x6040 ;clip x
3600:	31d9 6042      	        movew %a1@+,0x6042 ;clip y
3604:	31d9 6044      	        movew %a1@+,0x6044 ;clip w
3608:	31d9 6046      	        movew %a1@+,0x6046 ;clip h
360c:	4e75           	        rts
360e:	31fc 8036 60d4 	        movew #-32714,0x60d4
3614:	6100 11e4      	        bsrw 0x47fa
3618:	6000 da4a      	        braw 0x1064
361c:	0000 3ad6      	        orib #-42,%d0
3620:	0000 3ade      	        orib #-34,%d0
3624:	2078 5f8c      	        moveal 0x5f8c,%a0
3628:	4cb8 0003 60f0 	        movemw 0x60f0,%d0-%d1
362e:	30c0           	        movew %d0,%a0@+
3630:	30c1           	        movew %d1,%a0@+
3632:	31fc 0002 60d4 	        movew #2,0x60d4
3638:	6100 11c0      	        bsrw 0x47fa
363c:	4e75           	        rts
363e:	2078 5f8c      	        moveal 0x5f8c,%a0
3642:	31d8 5406      	        movew %a0@+,0x5406
3646:	6f12           	        bles 0x365a
3648:	31d8 5408      	        movew %a0@+,0x5408
364c:	6f0c           	        bles 0x365a
364e:	31fc 0002 60d4 	        movew #2,0x60d4
3654:	6100 11a4      	        bsrw 0x47fa
3658:	4e75           	        rts
365a:	31fc 8038 60d4 	        movew #-32712,0x60d4
3660:	6100 1198      	        bsrw 0x47fa
3664:	6000 d9fe      	        braw 0x1064
3668:	2078 5f8c      	        moveal 0x5f8c,%a0
366c:	4cb8 0003 60fa 	        movemw 0x60fa,%d0-%d1
3672:	30c0           	        movew %d0,%a0@+
3674:	30c1           	        movew %d1,%a0@+
3676:	31fc 0002 60d4 	        movew #2,0x60d4
367c:	6100 117c      	        bsrw 0x47fa
3680:	4e75           	        rts
3682:	2078 5f8c      	        moveal 0x5f8c,%a0
3686:	31d8 60e0      	        movew %a0@+,0x60e0
368a:	21fc ffff ffff 610e     movel #-1,0x610e
3692:	21fc ffff ffff 6112     movel #-1,0x6112
369a:	31fc 0002 60d4 	        movew #2,0x60d4
36a0:	6100 1158      	        bsrw 0x47fa
36a4:	4e75           	        rts

;const/tile/function
36b6:	48e7 c000      	        moveml %d0-%d1,%sp@-
36ba:	3038 6038      	        movew 0x6038,%d0 ;function
36be:	0838 0000 5f94 	        btst #0,0x5f94   ;src const?
36c4:	6708           	        beqs 0x36ce
36c6:	3238 5f9a      	        movew 0x5f9a,%d1 ;const 0000/FFFF
36ca:	6100 002e      	        bsrw 0x36fa
36ce:	31c0 5f98      	        movew %d0,0x5f98 ;function
36d2:	4cdf 0003      	        moveml %sp@+,%d0-%d1
36d6:	4e75           	        rts

;
36d8:	48e7 c000      	        moveml %d0-%d1,%sp@-
36dc:	3038 6038      	        movew 0x6038,%d0 ;function
36e0:	0838 0000 5fd4 	        btst #0,0x5fd4
36e6:	6708           	        beqs 0x36f0
36e8:	3238 5fda      	        movew 0x5fda,%d1
36ec:	6100 000c      	        bsrw 0x36fa
36f0:	31c0 5fd8      	        movew %d0,0x5fd8
36f4:	4cdf 0003      	        moveml %sp@+,%d0-%d1
36f8:	4e75           	        rts

;const->function
;d0 function, d1 const
36fa:	2f08           	        movel %a0,%sp@-
36fc:	4a41           	        tstw %d1
36fe:	6602           	        bnes 0x3702
3700:	e448           	        lsrw #2,%d0
3702:	0240 0003      	        andiw #3,%d0
3706:	207c 0000 3716 	        moveal #14102,%a0
370c:	e348           	        lslw #1,%d0
370e:	3030 0000      	        movew %a0@(0,%d0:w),%d0
3712:	205f           	        moveal %sp@+,%a0
3714:	4e75           	        rts

3716:	0000  ;function 0000
3718:	0005  ;function 0101
371a:	000a  ;function 1010
371c:	000f  ;function 1111

371e:	2f08           	        movel %a0,%sp@-
3720:	207c 0000 6116 	        moveal #24854,%a0
3726:	b050           	        cmpw %a0@,%d0
3728:	6f06           	        bles 0x3730
372a:	d0fc 0006      	        addaw #6,%a0
372e:	60f6           	        bras 0x3726
3730:	3828 0002      	        movew %a0@(2),%d4
3734:	3a28 0004      	        movew %a0@(4),%d5
3738:	205f           	        moveal %sp@+,%a0
373a:	4e75           	        rts

373c:	3f00           	        movew %d0,%sp@-
373e:	4a78 603e      	        tstw 0x603e      ;clip count
3742:	673e           	        beqs 0x3782
3744:	3038 6040      	        movew 0x6040,%d0 ;clip x
3748:	6a02           	        bpls 0x374c
374a:	4240           	        clrw %d0
374c:	31c0 36a6      	        movew %d0,0x36a6
3750:	d078 6044      	        addw 0x6044,%d0 ;clip w
3754:	b078 602c      	        cmpw 0x602c,%d0 ;dst w
3758:	6f04           	        bles 0x375e
375a:	3038 602c      	        movew 0x602c,%d0 ;dst w
375e:	31c0 36ac      	        movew %d0,0x36ac
3762:	3038 6042      	        movew 0x6042,%d0 ;clip y
3766:	6a02           	        bpls 0x376a
3768:	4240           	        clrw %d0
376a:	31c0 36b2      	        movew %d0,0x36b2
376e:	d078 6046      	        addw 0x6046,%d0 ;clip h
3772:	b078 602e      	        cmpw 0x602e,%d0 ;dst h
3776:	6f04           	        bles 0x377c
3778:	3038 602e      	        movew 0x602e,%d0 ;dst h
377c:	31c0 36b4      	        movew %d0,0x36b4
3780:	6014           	        bras 0x3796
3782:	4278 36a6      	        clrw 0x36a6
3786:	31f8 602c 36ac 	        movew 0x602c,0x36ac ;dst w
378c:	4278 36b2      	        clrw 0x36b2
3790:	31f8 602e 36b4 	        movew 0x602e,0x36b4 ;dst h
3796:	5378 36ac      	        subqw #1,0x36ac
379a:	5378 36b4      	        subqw #1,0x36b4
379e:	3038 36a6      	        movew 0x36a6,%d0
37a2:	e848           	        lsrw #4,%d0
37a4:	31c0 36aa      	        movew %d0,0x36aa
37a8:	e348           	        lslw #1,%d0
37aa:	31c0 36a8      	        movew %d0,0x36a8
37ae:	3038 36ac      	        movew 0x36ac,%d0
37b2:	e848           	        lsrw #4,%d0
37b4:	31c0 36b0      	        movew %d0,0x36b0
37b8:	e348           	        lslw #1,%d0
37ba:	31c0 36ae      	        movew %d0,0x36ae
37be:	301f           	        movew %sp@+,%d0
37c0:	4e75           	        rts

;fill area - ?
37c2:	31fc 7fff 60dc 	        movew #32767,0x60dc
37c8:	4238 5f94      	        clrb 0x5f94 ;clear flags
37cc:	4278 5f96      	        clrw 0x5f96 ;bba command
37d0:	21fc 0000 5ff4 5fb0     movel #24564,0x5fb0 ;tile a
37d8:	4278 5fa6      	        clrw 0x5fa6 ;src x
37dc:	4278 5fa8      	        clrw 0x5fa8 ;src y
37e0:	4278 601e      	        clrw 0x601e ;msk x
37e4:	4278 6020      	        clrw 0x6020 ;msk y
37e8:	4278 6024      	        clrw 0x6024 ;msk w
37ec:	4278 6026      	        clrw 0x6026 ;msk h
37f0:	4278 6040      	        clrw 0x6040 ;clip x
37f4:	4278 6042      	        clrw 0x6042 ;clip y
37f8:	4278 6032      	        clrw 0x6032 ;dst x
37fc:	4278 6034      	        clrw 0x6034 ;dst y
3800:	4e75           	        rts

;copy area - process source
3802:	2200           	        movel %d0,%d1
3804:	e688           	        lsrl #3,%d0
3806:	0241 0007      	        andiw #7,%d1
380a:	e549           	        lslw #2,%d1
380c:	0c41 000c      	        cmpiw #12,%d1
3810:	640e           	        bccs 0x3820
3812:	227c 0000 382e 	        moveal #14382,%a1
3818:	2271 1000      	        moveal %a1@(0,%d1:w),%a1
381c:	4e91           	        jsr %a1@
381e:	4e75           	        rts
3820:	31fc 8020 60d4 	        movew #-32736,0x60d4
3826:	6100 0fd2      	        bsrw 0x47fa
382a:	6000 d838      	        braw 0x1064

382e:	0000 383a
3832:	0000 3870
3836:	0000 38e8

;source 0 - const
383a:	08f8 0000 5f94 	        bset #0,0x5f94 ;flag src const
3840:	3218           	        movew %a0@+,%d1
3842:	6b1a           	        bmis 0x385e
3844:	e349           	        lslw #1,%d1
3846:	0c41 0004      	        cmpiw #4,%d1
384a:	6412           	        bccs 0x385e
384c:	227c 0000 386c 	        moveal #14444,%a1
3852:	31f1 1000 5f9a 	        movew %a1@(0,%d1:w),0x5f9a ;const
3858:	d0fc 000c      	        addaw #12,%a0
385c:	4e75           	        rts
385e:	31fc 8023 60d4 	        movew #-32733,0x60d4
3864:	6100 0f94      	        bsrw 0x47fa
3868:	6000 d7fa      	        braw 0x1064

386c:	0000
386e:	ffff

;source 1 - bitmap
3870:	08f8 0001 5f94 	        bset #1,0x5f94 ;flag src bitmap
3876:	0078 0001 5f96 	        oriw #1,0x5f96 ;bba command
387c:	227c 0000 3892 	        moveal #14482,%a1
3882:	6100 0014      	        bsrw 0x3898
3886:	21ca 5f9c      	        movel %a2,0x5f9c      ;src address
388a:	48b8 007e 5fa0 	        movemw %d1-%d6,0x5fa0 ;src whbxyW
3890:	4e75           	        rts

3892:	8021           	        orb %a1@-,%d0
3894:	8022           	        orb %a2@-,%d0
3896:	8024           	        orb %a4@-,%d0

;process bitmap
; a2 - address
; d1 - width
; d2 - height
; d3 - bits per pixel
; d4 - offset x
; d5 - offset y
; d6 - width in words
3898:	2218           	        movel %a0@+,%d1  ;address
389a:	4841           	        swap %d1
389c:	2441           	        moveal %d1,%a2
389e:	3218           	        movew %a0@+,%d1  ;width
38a0:	6f1e           	        bles 0x38c0
38a2:	3c01           	        movew %d1,%d6
38a4:	0646 000f      	        addiw #15,%d6
38a8:	e84e           	        lsrw #4,%d6
8aa:	e34e           	        lslw #1,%d6
38ac:	3418           	        movew %a0@+,%d2  ;height
38ae:	6f1c           	        bles 0x38cc
38b0:	3618           	        movew %a0@+,%d3  ;bits per pixel
38b2:	6f26           	        bles 0x38da
38b4:	0c43 0001      	        cmpiw #1,%d3
38b8:	6e20           	        bgts 0x38da
38ba:	3818           	        movew %a0@+,%d4  ;offset x
38bc:	3a18           	        movew %a0@+,%d5  ;offset y
38be:	4e75           	        rts
38c0:	31d1 60d4      	        movew %a1@,0x60d4
38c4:	6100 0f34      	        bsrw 0x47fa
38c8:	6000 d79a      	        braw 0x1064
38cc:	31e9 0002 60d4 	        movew %a1@(2),0x60d4
38d2:	6100 0f26      	        bsrw 0x47fa
38d6:	6000 d78c      	        braw 0x1064
38da:	31e9 0004 60d4 	        movew %a1@(4),0x60d4
38e0:	6100 0f18      	        bsrw 0x47fa
38e4:	6000 d77e      	        braw 0x1064

;source 2 - tile
38e8:	08f8 0002 5f94 	        bset #2,0x5f94  ;flag src tile
38ee:	0078 0010 5f96 	        oriw #16,0x5f96 ;bba command
38f4:	227c 0000 391e 	        moveal #14622,%a1
38fa:	6100 0028      	        bsrw 0x3924
38fe:	31c1 5fac      	        movew %d1,0x5fac ;const
3902:	31c2 5fae      	        movew %d2,0x5fae ;const
3906:	227c 0000 5ff4 	        moveal #24564,%a1 ;tile a
390c:	21c9 5fb0      	        movel %a1,0x5fb0  ;tile a
3910:	323c 000f      	        movew #15,%d1    ;copy to tile data
3914:	361a           	        movew %a2@+,%d3
3916:	32c3           	        movew %d3,%a1@+
3918:	51c9 fffa      	        dbf %d1,0x3914
391c:	4e75           	        rts

391e:	80a1
3920:	80a2
3922:	80a3

3924:	2218           	        movel %a0@+,%d1  ;tile address
3926:	4841           	        swap %d1
3928:	2441           	        moveal %d1,%a2
392a:	0c58 0010      	        cmpiw #16,%a0@+  ;tile w
392e:	6616           	        bnes 0x3946
3930:	0c58 0010      	        cmpiw #16,%a0@+  ;tile h
3934:	661c           	        bnes 0x3952
3936:	3218           	        movew %a0@+,%d1
3938:	6f26           	        bles 0x3960
393a:	0c41 0001      	        cmpiw #1,%d1     ;tile bits per pixel
393e:	6e20           	        bgts 0x3960
3940:	3218           	        movew %a0@+,%d1  ;const data
3942:	3418           	        movew %a0@+,%d2  ;const data
3944:	4e75           	        rts
3946:	31d1 60d4      	        movew %a1@,0x60d4
394a:	6100 0eae      	        bsrw 0x47fa
394e:	6000 d714      	        braw 0x1064
3952:	31e9 0002 60d4 	        movew %a1@(2),0x60d4
3958:	6100 0ea0      	        bsrw 0x47fa
395c:	6000 d706      	        braw 0x1064
3960:	31e9 0004 60d4 	        movew %a1@(4),0x60d4
3966:	6100 0e92      	        bsrw 0x47fa
396a:	6000 d6f8      	        braw 0x1064

;process mask
396e:	2200           	        movel %d0,%d1
3970:	e688           	        lsrl #3,%d0
3972:	0241 0007      	        andiw #7,%d1
3976:	e549           	        lslw #2,%d1
3978:	0c41 0008      	        cmpiw #8,%d1
397c:	6416           	        bccs 0x3994
397e:	227c 0000 39a2 	        moveal #14754,%a1
3984:	2271 1000      	        moveal %a1@(0,%d1:w),%a1
3988:	4e91           	        jsr %a1@
398a:	31d8 6024      	        movew %a0@+,0x6024 ;msk w
398e:	31d8 6026      	        movew %a0@+,0x6026 ;msk h
3992:	4e75           	        rts
3994:	31fc 8026 60d4 	        movew #-32730,0x60d4
399a:	6100 0e5e      	        bsrw 0x47fa
399e:	6000 d6c4      	        braw 0x1064

39a2:	0000 39aa      	        orib #-86,%d0
39a6:	0000 39b0      	        orib #-80,%d0

;mask 0 - no mask
39aa:	d0fc 000e      	        addaw #14,%a0
39ae:	4e75           	        rts

;mask 1 - bitmap
39b0:	08f8 0003 5f94 	        bset #3,0x5f94 ;flag msk bitmap
39b6:	08f8 0003 5fd4 	        bset #3,0x5fd4
39bc:	0078 0002 5f96 	        oriw #2,0x5f96 ;bba command
39c2:	0078 0002 5fd6 	        oriw #2,0x5fd6
39c8:	227c 0000 39de 	        moveal #14814,%a1
39ce:	6100 fec8      	        bsrw 0x3898    ;process bitmap
39d2:	21ca 6014      	        movel %a2,0x6014 ;addresss
39d6:	48b8 007e 6018 	        movemw %d1-%d6,0x6018 ;whbxyW
39dc:	4e75           	        rts
39de:	8027           	        orb %sp@-,%d0
39e0:	8028 8029      	        orb %a0@(-32727),%d0

;process destination
39e4:	e688           	        lsrl #3,%d0
39e6:	227c 0000 39fc 	        moveal #14844,%a1
39ec:	6100 feaa      	        bsrw 0x3898
39f0:	21ca 6028      	        movel %a2,0x6028  ;address
39f4:	48b8 007e 602c 	        movemw %d1-%d6,0x602c ;whbxyW
39fa:	4e75           	        rts

39fc:	802d
29fe:   802e
3a00:	802f

;process map
3a02:   2200           	        movel %d0,%d1
3a04:	e688           	        lsrl #3,%d0
3a06:	0241 0007      	        andiw #7,%d1
3a0a:	e549           	        lslw #2,%d1
3a0c:	0c41 0014      	        cmpiw #20,%d1
3a10:	6412           	        bccs 0x3a24
3a12:	227c 0000 3a32 	        moveal #14898,%a1
3a18:	2271 1000      	        moveal %a1@(0,%d1:w),%a1
3a1c:	4e91           	        jsr %a1@
3a1e:	31c1 6038      	        movew %d1,0x6038 ;function
3a22:	4e75           	        rts
3a24:	31fc 8032 60d4 	        movew #-32718,0x60d4
3a2a:	6100 0dce      	        bsrw 0x47fa
3a2e:	6000 d634      	        braw 0x1064

3a32:	0000 3a46      	        orib #70,%d0
3a36:	0000 3a4e      	        orib #78,%d0
3a3a:	0000 3a70      	        orib #112,%d0
3a3e:	0000 3a86      	        orib #-122,%d0
3a42:	0000 3a94      	        orib #-108,%d0

; 0
3a46:	323c 0003      	        movew #3,%d1
3a4a:	5848           	        addqw #4,%a0
3a4c:	4e75           	        rts

; 1
3a4e:	2218           	        movel %a0@+,%d1
3a50:	4841           	        swap %d1
3a52:	2241           	        moveal %d1,%a1
3a54:	3211           	        movew %a1@,%d1
3a56:	0241 0003      	        andiw #3,%d1
3a5a:	e349           	        lslw #1,%d1
3a5c:	227c 0000 3a68 	        moveal #14952,%a1
3a62:	3231 1000      	        movew %a1@(0,%d1:w),%d1
3a66:	4e75           	        rts

3a68:	0000
3a66:   0003
3a6c:	000c
3a6e:	000f

; 2
3a70:	3218           	        movew %a0@+,%d1
3a72:	5448           	        addqw #2,%a0
3a74:	0241 0003      	        andiw #3,%d1
3a78:	e349           	        lslw #1,%d1
3a7a:	227c 0000 3a68 	        moveal #14952,%a1
3a80:	3231 1000      	        movew %a1@(0,%d1:w),%d1
3a84:	4e75           	        rts

; 3
3a86:	2218           	        movel %a0@+,%d1
3a88:	4841           	        swap %d1
3a8a:	2241           	        moveal %d1,%a1
3a8c:	3211           	        movew %a1@,%d1
3a8e:	0241 000f      	        andiw #15,%d1
3a92:	4e75           	        rts

; 4
3a94:	3218           	        movew %a0@+,%d1
3a96:	5448           	        addqw #2,%a0
3a98:	0241 000f      	        andiw #15,%d1
3a9c:	4e75           	        rts

;process clipping
3a9e:	2200           	        movel %d0,%d1
3aa0:	e688           	        lsrl #3,%d0
3aa2:	0241 0007      	        andiw #7,%d1
3aa6:	e549           	        lslw #2,%d1
3aa8:	0c41 000c      	        cmpiw #12,%d1
3aac:	640e           	        bccs 0x3abc
3aae:	227c 0000 3aca 	        moveal #15050,%a1
3ab4:	2271 1000      	        moveal %a1@(0,%d1:w),%a1
3ab8:	4e91           	        jsr %a1@
3aba:	4e75           	        rts
3abc:	31fc 8036 60d4 	        movew #-32714,0x60d4
3ac2:	6100 0d36      	        bsrw 0x47fa
3ac6:	6000 d59c      	        braw 0x1064

3aca:	0000 3ad6      	        orib #-42,%d0
3ace:	0000 3ade      	        orib #-34,%d0
3ad2:	0000 3aec      	        orib #-20,%d0

;clipping 0
3ad6:	4278 603e      	        clrw 0x603e  ;no clips
3ada:	5048           	        addqw #8,%a0
3adc:	4e75           	        rts

;clipping 1
3ade:	21c8 603a      	        movel %a0,0x603a ;clip address
3ae2:	31fc 0001 603e 	        movew #1,0x603e ;one clip
3ae8:	5048           	        addqw #8,%a0
3aea:	4e75           	        rts

;clipping 2
3aec:	2218           	        movel %a0@+,%d1
3aee:	4841           	        swap %d1
3af0:	21c1 603a      	        movel %d1,0x603a
3af4:	31d8 603e      	        movew %a0@+,0x603e ;clip count
3af8:	6f04           	        bles 0x3afe
3afa:	5448           	        addqw #2,%a0
3afc:	4e75           	        rts
3afe:	31fc 8037 60d4 	        movew #-32713,0x60d4
3b04:	6100 0cf4      	        bsrw 0x47fa
3b08:	6000 d55a      	        braw 0x1064

;process segment list
3b0c:	2218           	        movel %a0@+,%d1
3b0e:	4841           	        swap %d1
3b10:	21c1 6048      	        movel %d1,0x6048    ;segment list address
3b14:	31d8 604c      	        movew %a0@+,0x604c  ;segment list count
3b18:	6f02           	        bles 0x3b1c
3b1a:	4e75           	        rts
3b1c:	31fc 803f 60d4 	        movew #-32705,0x60d4
3b22:	6100 0cd6      	        bsrw 0x47fa
3b26:	6000 d53c      	        braw 0x1064

3b2a:	0010 0000      	        orib #0,%a0@
3b2e:	0010 0000      	        orib #0,%a0@
3b32:	0010 0000      	        orib #0,%a0@
3b36:	0000 0000      	        orib #0,%d0
3b3a:	0000

;repeat command for each clip
3b3c:	3f38 5f96		movew 0x5f96,%sp@-	;bba command
3b40:	3f38 5fa6		movew 0x5fa6,%sp@-	;src x
3b44:	3f38 5fa8		movew 0x5fa8,%sp@-	;src y
3b48:	3f38 601e		movew 0x601e,%sp@-	;msk x
3b4c:	3f38 6020		movew 0x6020,%sp@-	;msk y
3b50:	3f38 6032		movew 0x6032,%sp@-	;dst x
3b54:	3f38 6034		movew 0x6034,%sp@-	;dst y
3b58:	51f8 3b3a		sf 0x3b3a		;flag: negative something
3b5c:	6100 0042		bsrw 0x3ba0		;check stuff
3b60:	4a38 3b3a		tstb 0x3b3a
3b64:	661c			bnes 0x3b82		;skip all this?
3b66:	4a78 3b36		tstw 0x3b36		;msk w
3b6a:	6f16			bles 0x3b82		;skip?
3b6c:	4a78 3b38		tstw 0x3b38		;msk h
3b70:	6f10			bles 0x3b82		;skip?
3b72:	6100 2358		bsrw 0x5ecc
3b76:	6100 01a2		bsrw 0x3d1a
3b7a:	6100 01fe		bsrw 0x3d7a		;compute ending addresses
3b7e:	6100 023a		bsrw 0x3dba		;write to bba scratchpad
3b82:	31df 6034		movew %sp@+,0x6034	;dst y
3b86:	31df 6032		movew %sp@+,0x6032	;dst x
3b8a:	31df 6020		movew %sp@+,0x6020	;msk y
3b8e:	31df 601e		movew %sp@+,0x601e	;msk x
3b92:	31df 5fa8		movew %sp@+,0x5fa8	;src y
3b96:	31df 5fa6		movew %sp@+,0x5fa6	;src x
3b9a:	31df 5f96		movew %sp@+,0x5f96	;bba command
3b9e:	4e75           	        rts

3ba0:	48e7 7800      	        moveml %d1-%d4,%sp@-
3ba4:	3638 6024      	        movew 0x6024,%d3 ;msk w
3ba8:	3838 6026      	        movew 0x6026,%d4 ;msk h
3bac:	0838 0001 5f94 	        btst #1,0x5f94   ;src bitmap?
3bb2:	6750           	        beqs 0x3c04
3bb4:	3238 5fa0      	        movew 0x5fa0,%d1 ;src w
3bb8:	3438 5fa6      	        movew 0x5fa6,%d2 ;src x
3bbc:	6718           	        beqs 0x3bd6
3bbe:	6e10           	        bgts 0x3bd0
3bc0:	4278 5fa6      	        clrw 0x5fa6 ;src x
3bc4:	9578 601e      	        subw %d2,0x601e ;msk x
3bc8:	9578 6032      	        subw %d2,0x6032 ;dst x
3bcc:	d642           	        addw %d2,%d3
3bce:	6006           	        bras 0x3bd6
3bd0:	9242           	        subw %d2,%d1
3bd2:	6f00 0140      	        blew 0x3d14
3bd6:	b243           	        cmpw %d3,%d1
3bd8:	6c02           	        bges 0x3bdc
3bda:	3601           	        movew %d1,%d3
3bdc:	3238 5fa2      	        movew 0x5fa2,%d1 ;src h
3be0:	3438 5fa8      	        movew 0x5fa8,%d2 ;src y
3be4:	6718           	        beqs 0x3bfe
3be6:	6e10           	        bgts 0x3bf8
3be8:	4278 5fa8      	        clrw 0x5fa8      ;src y
3bec:	9578 6020      	        subw %d2,0x6020  ;msk y
3bf0:	9578 6034      	        subw %d2,0x6034  ;dst y
3bf4:	d842           	        addw %d2,%d4
3bf6:	6006           	        bras 0x3bfe
3bf8:	9242           	        subw %d2,%d1
3bfa:	6f00 0118      	        blew 0x3d14
3bfe:	b244           	        cmpw %d4,%d1
3c00:	6c02           	        bges 0x3c04
3c02:	3801           	        movew %d1,%d4
3c04:	0838 0003 5f94 	        btst #3,0x5f94   ;msk bitmap?
3c0a:	6750           	        beqs 0x3c5c
3c0c:	3238 6018      	        movew 0x6018,%d1 ;msk w
3c10:	3438 601e      	        movew 0x601e,%d2 ;msk x
3c14:	6718           	        beqs 0x3c2e
3c16:	6e10           	        bgts 0x3c28
3c18:	9578 5fa6      	        subw %d2,0x5fa6 ;src x
3c1c:	4278 601e      	        clrw 0x601e     ;msk x
3c20:	9578 6032      	        subw %d2,0x6032 ;dst x
3c24:	d642           	        addw %d2,%d3
3c26:	6006           	        bras 0x3c2e
3c28:	9242           	        subw %d2,%d1
3c2a:	6f00 00e8      	        blew 0x3d14
3c2e:	b243           	        cmpw %d3,%d1
3c30:	6c02           	        bges 0x3c34
3c32:	3601           	        movew %d1,%d3
3c34:	3238 601a      	        movew 0x601a,%d1 ;msk h
3c38:	3438 6020      	        movew 0x6020,%d2 ;msk y
3c3c:	6718           	        beqs 0x3c56
3c3e:	6e10           	        bgts 0x3c50
3c40:	9578 5fa8      	        subw %d2,0x5fa8 ;src y
3c44:	4278 6020      	        clrw 0x6020     ;msk y
3c48:	9578 6034      	        subw %d2,0x6034 ;dst y
3c4c:	d842           	        addw %d2,%d4
3c4e:	6006           	        bras 0x3c56
3c50:	9242           	        subw %d2,%d1
3c52:	6f00 00c0      	        blew 0x3d14
3c56:	b244           	        cmpw %d4,%d1
3c58:	6c02           	        bges 0x3c5c
3c5a:	3801           	        movew %d1,%d4
3c5c:	3238 602c      	        movew 0x602c,%d1 ;dst w
3c60:	3438 6032      	        movew 0x6032,%d2 ;dst x
3c64:	6718           	        beqs 0x3c7e
3c66:	6e10           	        bgts 0x3c78
3c68:	9578 5fa6      	        subw %d2,0x5fa6 ;src x
3c6c:	9578 601e      	        subw %d2,0x601e ;msk x
3c70:	4278 6032      	        clrw 0x6032     ;dst x
3c74:	d642           	        addw %d2,%d3
3c76:	6006           	        bras 0x3c7e
3c78:	9242           	        subw %d2,%d1
3c7a:	6f00 0098      	        blew 0x3d14
3c7e:	b243           	        cmpw %d3,%d1
3c80:	6c02           	        bges 0x3c84
3c82:	3601           	        movew %d1,%d3
3c84:	3238 602e      	        movew 0x602e,%d1 ;dst h
3c88:	3438 6034      	        movew 0x6034,%d2 ;dst y
3c8c:	6718           	        beqs 0x3ca6
3c8e:	6e10           	        bgts 0x3ca0
3c90:	9578 5fa8      	        subw %d2,0x5fa8 ;src y
3c94:	9578 6020      	        subw %d2,0x6020 ;msk y
3c98:	4278 6034      	        clrw 0x6034     ;dst y
3c9c:	d842           	        addw %d2,%d4
3c9e:	6006           	        bras 0x3ca6
3ca0:	9242           	        subw %d2,%d1
3ca2:	6f00 0070      	        blew 0x3d14
3ca6:	b244           	        cmpw %d4,%d1
3ca8:	6c02           	        bges 0x3cac
3caa:	3801           	        movew %d1,%d4
3cac:	4a78 603e      	        tstw 0x603e      ;clip count
3cb0:	6754           	        beqs 0x3d06
3cb2:	3238 6044      	        movew 0x6044,%d1 ;clip w
3cb6:	3438 6040      	        movew 0x6040,%d2 ;clip x
3cba:	9478 6032      	        subw 0x6032,%d2     ;dst x
3cbe:	6716           	        beqs 0x3cd6
3cc0:	6d12           	        blts 0x3cd4
3cc2:	d578 5fa6      	        addw %d2,0x5fa6     ;src x
3cc6:	d578 601e      	        addw %d2,0x601e     ;msk x
3cca:	31f8 6040 6032 	        movew 0x6040,0x6032 ;dst x
3cd0:	9642           	        subw %d2,%d3
3cd2:	6002           	        bras 0x3cd6
3cd4:	d242           	        addw %d2,%d1
3cd6:	b243           	        cmpw %d3,%d1
3cd8:	6c02           	        bges 0x3cdc
3cda:	3601           	        movew %d1,%d3
3cdc:	3238 6046      	        movew 0x6046,%d1 ;clip h
3ce0:	3438 6042      	        movew 0x6042,%d2 ;clip y
3ce4:	9478 6034      	        subw 0x6034,%d2 ;dst y
3ce8:	6716           	        beqs 0x3d00
3cea:	6d12           	        blts 0x3cfe
3cec:	d578 5fa8      	        addw %d2,0x5fa8 ;src y
3cf0:	d578 6020      	        addw %d2,0x6020 ;msk y
3cf4:	31f8 6042 6034 	        movew 0x6042,0x6034 ;dst y
3cfa:	9842           	        subw %d2,%d4
3cfc:	6002           	        bras 0x3d00
3cfe:	d242           	        addw %d2,%d1
3d00:	b244           	        cmpw %d4,%d1
3d02:	6c02           	        bges 0x3d06
3d04:	3801           	        movew %d1,%d4
3d06:	31c3 3b36      	        movew %d3,0x3b36 ;msk w
3d0a:	31c4 3b38      	        movew %d4,0x3b38 ;msk h
3d0e:	4cdf 001e      	        moveml %sp@+,%d1-%d4
3d12:	4e75           	        rts
3d14:	50f8 3b3a      	        st 0x3b3a   ;flag
3d18:	60ec           	        bras 0x3d06

3d1a:	2f00           	        movel %d0,%sp@-
3d1c:	0838 0001 5f94 	        btst #1,0x5f94   ;src bitmap?
3d22:	6752           	        beqs 0x3d76
3d24:	2038 5f9c      	        movel 0x5f9c,%d0 ;src address
3d28:	b0b8 6028      	        cmpl 0x6028,%d0  ;dst address
3d2c:	6648           	        bnes 0x3d76
3d2e:	3038 6034      	        movew 0x6034,%d0 ;dst y
3d32:	b078 5fa8      	        cmpw 0x5fa8,%d0  ;src y
3d36:	6d3e           	        blts 0x3d76
3d38:	671a           	        beqs 0x3d54
3d3a:	0078 0008 5f96 	        oriw #8,0x5f96   ;bba command, direction upwards
3d40:	3038 3b38      	        movew 0x3b38,%d0 ;msk h
3d44:	5340           	        subqw #1,%d0
3d46:	d178 5fa8      	        addw %d0,0x5fa8  ;src y
3d4a:	d178 6020      	        addw %d0,0x6020  ;msk y
3d4e:	d178 6034      	        addw %d0,0x6034  ;dst y
3d52:	6022           	        bras 0x3d76
3d54:	3038 6032      	        movew 0x6032,%d0 ;dst x
3d58:	b078 5fa6      	        cmpw 0x5fa6,%d0  ;src x
3d5c:	6f18           	        bles 0x3d76
3d5e:	0078 0004 5f96 	        oriw #4,0x5f96   ;bba command, direction left
3d64:	3038 3b36      	        movew 0x3b36,%d0 ;msk w
3d68:	5340           	        subqw #1,%d0
3d6a:	d178 5fa6      	        addw %d0,0x5fa6 ;src x
3d6e:	d178 601e      	        addw %d0,0x601e ;msk x
3d72:	d178 6032      	        addw %d0,0x6032 ;dst x
3d76:	201f           	        movel %sp@+,%d0
3d78:	4e75           	        rts

;compute ending addresses
3d7a:	2f00           	        movel %d0,%sp@-
3d7c:	21f8 5f9c 3b2a 	        movel 0x5f9c,0x3b2a ;src address
3d82:	3038 5fa8      	        movew 0x5fa8,%d0    ;src y
3d86:	6708           	        beqs 0x3d90
3d88:	c1f8 5faa      	        mulsw 0x5faa,%d0    ;src W
3d8c:	d1b8 3b2a      	        addl %d0,0x3b2a
3d90:	21f8 6014 3b2e 	        movel 0x6014,0x3b2e ;msk address
3d96:	3038 6020      	        movew 0x6020,%d0    ;msk y
3d9a:	6708           	        beqs 0x3da4
3d9c:	c1f8 6022      	        mulsw 0x6022,%d0    ;msk W
3da0:	d1b8 3b2e      	        addl %d0,0x3b2e
3da4:	21f8 6028 3b32 	        movel 0x6028,0x3b32 ;dst address
3daa:	3038 6034      	        movew 0x6034,%d0    ;dst y
3dae:	c1f8 6036      	        mulsw 0x6036,%d0    ;dst W
3db2:	d1b8 3b32      	        addl %d0,0x3b32     ;dst address
3db6:	201f           	        movel %sp@+,%d0
3db8:	4e75           	        rts

;write to bba scratchpad
3dba:	2f08           	        movel %a0,%sp@-
3dbc:	207c 0030 0000 	        moveal #3145728,%a0
3dc2:	4a38 60e2      	        tstb 0x60e2
3dc6:	66fa           	        bnes 0x3dc2
3dc8:	30f8 5f96      	        movew 0x5f96,%a0@+ ;bba command
3dcc:	20f8 3b2a      	        movel 0x3b2a,%a0@+ ;src address
3dd0:	30f8 5fa6      	        movew 0x5fa6,%a0@+ ;src x
3dd4:	30f8 5faa      	        movew 0x5faa,%a0@+ ;src W
3dd8:	20f8 3b2e      	        movel 0x3b2e,%a0@+ ;msk address
3ddc:	30f8 601e      	        movew 0x601e,%a0@+ ;msk x
3de0:	30f8 6022      	        movew 0x6022,%a0@+ ;msk W
3de4:	20f8 3b32      	        movel 0x3b32,%a0@+ ;dst address
3de8:	30f8 6032      	        movew 0x6032,%a0@+ ;dst x
3dec:	30f8 6036      	        movew 0x6036,%a0@+ ;dst W
3df0:	30f8 3b36      	        movew 0x3b36,%a0@+ ;msk w
3df4:	30f8 3b38      	        movew 0x3b38,%a0@+ ;msk h
3df8:	30f8 5f98      	        movew 0x5f98,%a0@+ ;function
3dfc:	20f8 5fb0      	        movel 0x5fb0,%a0@+ ;tile a
3e00:	30b8 6034      	        movew 0x6034,%a0@  ;dst y
3e04:	50f8 60e2      	        st 0x60e2
3e08:	13fc 0001 0028 0000     moveb #1,0x280000
3e10:	205f           	        moveal %sp@+,%a0
3e12:	4e75           	        rts
3e14:	48e7 80c0      	        moveml %d0/%a0-%a1,%sp@-
3e18:	207c 0000 6528 	        moveal #25896,%a0
3e1e:	227c 0000 0000 	        moveal #0,%a1
3e24:	303c 003f      	        movew #63,%d0
3e28:	22d8           	        movel %a0@+,%a1@+
3e2a:	51c8 fffc      	        dbf %d0,0x3e28
3e2e:	207c 0018 0000 	        moveal #1572864,%a0
3e34:	227c 0000 0000 	        moveal #0,%a1
3e3a:	22d8           	        movel %a0@+,%a1@+
3e3c:	22d8           	        movel %a0@+,%a1@+
3e3e:	4cdf 0301      	        moveml %sp@+,%d0/%a0-%a1
3e42:	4e75           	        rts
3e44:	007c 0700      	        oriw #1792,%sr
3e48:	0839 0004 0080 00c1     btst #4,0x8000c1
3e50:	6722           	        beqs 0x3e74
3e52:	0839 0003 0080 00c1     btst #3,0x8000c1
3e5a:	662a           	        bnes 0x3e86
3e5c:	0839 0002 0080 00c1     btst #2,0x8000c1
3e64:	662e           	        bnes 0x3e94
3e66:	31fc 8006 60d4 	        movew #-32762,0x60d4
3e6c:	6100 098c      	        bsrw 0x47fa
3e70:	6000 d1f2      	        braw 0x1064
3e74:	31fc 8005 60d4 	        movew #-32763,0x60d4
3e7a:	6100 097e      	        bsrw 0x47fa
3e7e:	6100 11fa      	        bsrw 0x507a
3e82:	6000 d1e0      	        braw 0x1064
3e86:	31fc 8004 60d4 	        movew #-32764,0x60d4
3e8c:	6100 096c      	        bsrw 0x47fa
3e90:	6000 d1d2      	        braw 0x1064
3e94:	31fc 8003 60d4 	        movew #-32765,0x60d4
3e9a:	6100 095e      	        bsrw 0x47fa
3e9e:	6000 d1c4      	        braw 0x1064
3ea2:	31fc 8007 60d4 	        movew #-32761,0x60d4
3ea8:	6100 0950      	        bsrw 0x47fa
3eac:	6000 d1b6      	        braw 0x1064
3eb0:	31fc 8009 60d4 	        movew #-32759,0x60d4
3eb6:	6100 0942      	        bsrw 0x47fa
3eba:	6000 d1a8      	        braw 0x1064
3ebe:	31fc 8008 60d4 	        movew #-32760,0x60d4
3ec4:	6100 0934      	        bsrw 0x47fa
3ec8:	6000 d19a      	        braw 0x1064
3ecc:	4e73           	        rte
3ece:	4e73           	        rte
3ed0:	4e73           	        rte
3ed2:	4e73           	        rte
3ed4:	31fc 8009 60d4 	        movew #-32759,0x60d4
3eda:	6100 091e      	        bsrw 0x47fa
3ede:	6000 d184      	        braw 0x1064
3ee2:	31fc 8009 60d4 	        movew #-32759,0x60d4
3ee8:	6100 0910      	        bsrw 0x47fa
3eec:	6000 d176      	        braw 0x1064
3ef0:	4e73           	        rte
3ef2:	4e73           	        rte
3ef4:	4e73           	        rte
3ef6:	4e73           	        rte
3ef8:	4e73           	        rte
3efa:	4e73           	        rte
3efc:	4e73           	        rte
3efe:	4e73           	        rte
3f00:	4e73           	        rte
3f02:	4e73           	        rte
3f04:	4e73           	        rte
3f06:	4e73           	        rte
3f08:	4e73           	        rte
3f0a:	4e73           	        rte
3f0c:	4e73           	        rte
3f0e:	4e73           	        rte
3f10:	4e73           	        rte
3f12:	4e73           	        rte
3f14:	4e73           	        rte
3f16:	4e73           	        rte

3f58:	0000 0000      	        orib #0,%d0
3f5c:	0000 3f18      	        orib #24,%d0
3f60:	0000 3f58      	        orib #88,%d0

40f4:	3f64 0000      	        movew %a4@-,%sp@(0)
40f8:	40e4           	        movew %sr,%a4@-

430a:	40fa           	        .short 0x40fa
430c:	0000 42fa      	        orib #-6,%d0

44a2:	4312           	        chkl %a2@,%d1
44a4:	0000 4492      	        orib #-110,%d0

463a:	44aa 0000      	        negl %a2@(0)
463e:	462a 0000      	        notb %a2@(0)
4642:	48e7 8080      	        moveml %d0/%a0,%sp@-
4646:	4238 4b41      	        clrb 0x4b41
464a:	4278 3f5a      	        clrw 0x3f5a
464e:	207c 0000 3f18 	        moveal #16152,%a0
4654:	21c8 3f60      	        movel %a0,0x3f60
4658:	21c8 3f5c      	        movel %a0,0x3f5c
465c:	303c 003f      	        movew #63,%d0
4660:	4218           	        clrb %a0@+
4662:	51c8 fffc      	        dbf %d0,0x4660
4666:	4278 60d4      	        clrw 0x60d4
466a:	4278 40f0      	        clrw 0x40f0
466e:	207c 0000 3f64 	        moveal #16228,%a0
4674:	21c8 40f6      	        movel %a0,0x40f6
4678:	21c8 40f2      	        movel %a0,0x40f2
467c:	303c 00bf      	        movew #191,%d0
4680:	4258           	        clrw %a0@+
4682:	51c8 fffc      	        dbf %d0,0x4680
4686:	4278 4306      	        clrw 0x4306
468a:	207c 0000 40fa 	        moveal #16634,%a0
4690:	21c8 430c      	        movel %a0,0x430c
4694:	21c8 4308      	        movel %a0,0x4308
4698:	303c 00ff      	        movew #255,%d0
469c:	4258           	        clrw %a0@+
469e:	51c8 fffc      	        dbf %d0,0x469c
46a2:	4278 449e      	        clrw 0x449e
46a6:	207c 0000 4312 	        moveal #17170,%a0
46ac:	21c8 44a4      	        movel %a0,0x44a4
46b0:	21c8 44a0      	        movel %a0,0x44a0
46b4:	303c 00bf      	        movew #191,%d0
46b8:	4258           	        clrw %a0@+
46ba:	51c8 fffc      	        dbf %d0,0x46b8
46be:	4278 4636      	        clrw 0x4636
46c2:	207c 0000 44aa 	        moveal #17578,%a0
46c8:	21c8 463c      	        movel %a0,0x463c
46cc:	21c8 4638      	        movel %a0,0x4638
46d0:	303c 00bf      	        movew #191,%d0
46d4:	4258           	        clrw %a0@+
46d6:	51c8 fffc      	        dbf %d0,0x46d4
46da:	4cdf 0101      	        moveml %sp@+,%d0/%a0
46de:	4e75           	        rts

46e0:	2f08           	        movel %a0,%sp@-
46e2:	0c78 0040 3f5a 	        cmpiw #64,0x3f5a
46e8:	6224           	        bhis 0x470e
46ea:	5278 3f5a      	        addqw #1,0x3f5a
46ee:	2078 3f60      	        moveal 0x3f60,%a0
46f2:	10f8 4b41      	        moveb 0x4b41,%a0@+
46f6:	b1fc 0000 3f58 	        cmpal #16216,%a0
46fc:	6306           	        blss 0x4704
46fe:	207c 0000 3f18 	        moveal #16152,%a0
4704:	4210           	        clrb %a0@
4706:	21c8 3f60      	        movel %a0,0x3f60
470a:	205f           	        moveal %sp@+,%a0
470c:	4e75           	        rts
470e:	31fc 800c 60d4 	        movew #-32756,0x60d4
4714:	6100 00e4      	        bsrw 0x47fa
4718:	60f0           	        bras 0x470a

471a:	2f08           	        movel %a0,%sp@-
471c:	08f8 0000 4310 	        bset #0,0x4310
4722:	0c78 0100 4306 	        cmpiw #256,0x4306
4728:	622c           	        bhis 0x4756
472a:	5278 4306      	        addqw #1,0x4306
472e:	2078 430c      	        moveal 0x430c,%a0
4732:	0041 0400      	        oriw #1024,%d1
4736:	30c1           	        movew %d1,%a0@+
4738:	b1fc 0000 42fa 	        cmpal #17146,%a0
473e:	6306           	        blss 0x4746
4740:	207c 0000 40fa 	        moveal #16634,%a0
4746:	4250           	        clrw %a0@
4748:	21c8 430c      	        movel %a0,0x430c
474c:	08b8 0000 4310 	        bclr #0,0x4310
4752:	205f           	        moveal %sp@+,%a0
4754:	4e75           	        rts
4756:	31fc 8011 60d4 	        movew #-32751,0x60d4
475c:	6100 009c      	        bsrw 0x47fa
4760:	60ea           	        bras 0x474c
4762:	2f08           	        movel %a0,%sp@-
4764:	08f8 0000 4640 	        bset #0,0x4640
476a:	0c78 0040 4636 	        cmpiw #64,0x4636
4770:	6230           	        bhis 0x47a2
4772:	5278 4636      	        addqw #1,0x4636
4776:	2078 463c      	        moveal 0x463c,%a0
477a:	0041 0600      	        oriw #1536,%d1
477e:	30c1           	        movew %d1,%a0@+
4780:	30c2           	        movew %d2,%a0@+
4782:	30c3           	        movew %d3,%a0@+
4784:	b1fc 0000 462a 	        cmpal #17962,%a0
478a:	6306           	        blss 0x4792
478c:	207c 0000 44aa 	        moveal #17578,%a0
4792:	4250           	        clrw %a0@
4794:	21c8 463c      	        movel %a0,0x463c
4798:	08b8 0000 4640 	        bclr #0,0x4640
479e:	205f           	        moveal %sp@+,%a0
47a0:	4e75           	        rts
47a2:	31fc 800f 60d4 	        movew #-32753,0x60d4
47a8:	6100 0050      	        bsrw 0x47fa
47ac:	60ea           	        bras 0x4798
47ae:	2f08           	        movel %a0,%sp@-
47b0:	08f8 0000 44a8 	        bset #0,0x44a8
47b6:	0c78 0040 449e 	        cmpiw #64,0x449e
47bc:	6230           	        bhis 0x47ee
47be:	5278 449e      	        addqw #1,0x449e
47c2:	2078 44a4      	        moveal 0x44a4,%a0
47c6:	0041 0200      	        oriw #512,%d1
47ca:	30c1           	        movew %d1,%a0@+
47cc:	30c2           	        movew %d2,%a0@+
47ce:	30c3           	        movew %d3,%a0@+
47d0:	b1fc 0000 4492 	        cmpal #17554,%a0
47d6:	6306           	        blss 0x47de
47d8:	207c 0000 4312 	        moveal #17170,%a0
47de:	4250           	        clrw %a0@
47e0:	21c8 44a4      	        movel %a0,0x44a4
47e4:	08b8 0000 44a8 	        bclr #0,0x44a8
47ea:	205f           	        moveal %sp@+,%a0
47ec:	4e75           	        rts
47ee:	31fc 800e 60d4 	        movew #-32754,0x60d4
47f4:	6100 0004      	        bsrw 0x47fa
47f8:	60ea           	        bras 0x47e4

47fa:	40e7           	        movew %sr,%sp@-
47fc:	007c 0700      	        oriw #1792,%sr
4800:	2f08           	        movel %a0,%sp@-
4802:	0c78 0040 40f0 	        cmpiw #64,0x40f0
4808:	6228           	        bhis 0x4832
480a:	5278 40f0      	        addqw #1,0x40f0
480e:	2078 40f6      	        moveal 0x40f6,%a0
4812:	30f8 60d4      	        movew 0x60d4,%a0@+ ;reason
4816:	30f8 60d6      	        movew 0x60d6,%a0@+ ;param
481a:	30f8 60d8      	        movew 0x60d8,%a0@+ ;param
481e:	b1fc 0000 40e4 	        cmpal #16612,%a0
4824:	6306           	        blss 0x482c
4826:	207c 0000 3f64 	        moveal #16228,%a0
482c:	4250           	        clrw %a0@
482e:	21c8 40f6      	        movel %a0,0x40f6
4832:	205f           	        moveal %sp@+,%a0
4834:	46df           	        movew %sp@+,%sr
4836:	4e75           	        rts

4838:	2f08           	        movel %a0,%sp@-
483a:	2078 3f5c      	        moveal 0x3f5c,%a0
483e:	4a10           	        tstb %a0@
4840:	671e           	        beqs 0x4860
4842:	13d8 0080 0001 	        moveb %a0@+,0x800001
4848:	b1fc 0000 3f58 	        cmpal #16216,%a0
484e:	6306           	        blss 0x4856
4850:	207c 0000 3f18 	        moveal #16152,%a0
4856:	21c8 3f5c      	        movel %a0,0x3f5c
485a:	5378 3f5a      	        subqw #1,0x3f5a
485e:	6008           	        bras 0x4868
4860:	08b9 0000 0080 0007     bclr #0,0x800007
4868:	4cdf 0100      	        moveml %sp@+,%a0
486c:	4e75           	        rts

486e:	40e7           	        movew %sr,%sp@-
4870:	007c 0700      	        oriw #1792,%sr
4874:	2f08           	        movel %a0,%sp@-
4876:	2078 40f2      	        moveal 0x40f2,%a0
487a:	3418           	        movew %a0@+,%d2
487c:	671a           	        beqs 0x4898
487e:	3618           	        movew %a0@+,%d3
4880:	3818           	        movew %a0@+,%d4
4882:	b1fc 0000 40e4 	        cmpal #16612,%a0
4888:	6306           	        blss 0x4890
488a:	207c 0000 3f64 	        moveal #16228,%a0
4890:	21c8 40f2      	        movel %a0,0x40f2
4894:	5378 40f0      	        subqw #1,0x40f0
4898:	205f           	        moveal %sp@+,%a0
489a:	46df           	        movew %sp@+,%sr
489c:	4e75           	        rts

489e:	2f08           	        movel %a0,%sp@-
48a0:	4242           	        clrw %d2
48a2:	0838 0000 4310 	        btst #0,0x4310
48a8:	661e           	        bnes 0x48c8
48aa:	2078 4308      	        moveal 0x4308,%a0
48ae:	3418           	        movew %a0@+,%d2
48b0:	6716           	        beqs 0x48c8
48b2:	b1fc 0000 42fa 	        cmpal #17146,%a0
48b8:	6306           	        blss 0x48c0
48ba:	207c 0000 40fa 	        moveal #16634,%a0
48c0:	21c8 4308      	        movel %a0,0x4308
48c4:	5378 4306      	        subqw #1,0x4306
48c8:	205f           	        moveal %sp@+,%a0
48ca:	4e75           	        rts
48cc:	2f08           	        movel %a0,%sp@-
48ce:	4242           	        clrw %d2
48d0:	0838 0000 44a8 	        btst #0,0x44a8
48d6:	6622           	        bnes 0x48fa
48d8:	2078 44a0      	        moveal 0x44a0,%a0
48dc:	3418           	        movew %a0@+,%d2
48de:	671a           	        beqs 0x48fa
48e0:	3618           	        movew %a0@+,%d3
48e2:	3818           	        movew %a0@+,%d4
48e4:	b1fc 0000 4492 	        cmpal #17554,%a0
48ea:	6306           	        blss 0x48f2
48ec:	207c 0000 4312 	        moveal #17170,%a0
48f2:	21c8 44a0      	        movel %a0,0x44a0
48f6:	5378 449e      	        subqw #1,0x449e
48fa:	205f           	        moveal %sp@+,%a0
48fc:	4e75           	        rts
48fe:	2f08           	        movel %a0,%sp@-
4900:	4242           	        clrw %d2
4902:	0838 0000 4640 	        btst #0,0x4640
4908:	6622           	        bnes 0x492c
490a:	2078 4638      	        moveal 0x4638,%a0
490e:	3418           	        movew %a0@+,%d2
4910:	671a           	        beqs 0x492c
4912:	3618           	        movew %a0@+,%d3
4914:	3818           	        movew %a0@+,%d4
4916:	b1fc 0000 462a 	        cmpal #17962,%a0
491c:	6306           	        blss 0x4924
491e:	207c 0000 44aa 	        moveal #17578,%a0
4924:	21c8 4638      	        movel %a0,0x4638
4928:	5378 4636      	        subqw #1,0x4636
492c:	205f           	        moveal %sp@+,%a0
492e:	4e75           	        rts
4930:	0000 4980      	        orib #-128,%d0
4934:	0000 48e7      	        orib #-25,%d0
4938:	80c0           	        divuw %d0,%d0
493a:	0839 0004 0080 00c1     btst #4,0x8000c1
4942:	6736           	        beqs 0x497a
4944:	4a79 0048 0002 	        tstw 0x480002
494a:	662e           	        bnes 0x497a
494c:	4238 4934      	        clrb 0x4934
4950:	2078 4930      	        moveal 0x4930,%a0
4954:	303c 0003      	        movew #3,%d0
4958:	0838 0000 4934 	        btst #0,0x4934
495e:	6616           	        bnes 0x4976
4960:	b1fc 0000 4990 	        cmpal #18832,%a0
4966:	6d06           	        blts 0x496e
4968:	207c 0000 4980 	        moveal #18816,%a0
496e:	2258           	        moveal %a0@+,%a1
4970:	4e91           	        jsr %a1@
4972:	51c8 ffe4      	        dbf %d0,0x4958
4976:	21c8 4930      	        movel %a0,0x4930
497a:	4cdf 0301      	        moveml %sp@+,%d0/%a0-%a1
497e:	4e75           	        rts

4980:	0000 4990      	        orib #-112,%d0
4984:	0000 49ce      	        orib #-50,%d0
4988:	0000 49f6      	        orib #-10,%d0
498c:	0000 4a7a      	        orib #122,%d0

4990:	48e7 3800      	        moveml %d2-%d4,%sp@-
4994:	6100 fed8      	        bsrw 0x486e
4998:	4a42           	        tstw %d2
499a:	6724           	        beqs 0x49c0
499c:	0c42 8010      	        cmpiw #-32752,%d2
49a0:	6724           	        beqs 0x49c6
49a2:	33c2 0048 0002 	        movew %d2,0x480002
49a8:	33c3 0048 000a 	        movew %d3,0x48000a
49ae:	33c4 0048 000c 	        movew %d4,0x48000c
49b4:	4a79 004c 0000 	        tstw 0x4c0000
49ba:	08f8 0000 4934 	        bset #0,0x4934
49c0:	4cdf 001c      	        moveml %sp@+,%d2-%d4
49c4:	4e75           	        rts
49c6:	6100 06b2      	        bsrw 0x507a
49ca:	6000 c824      	        braw 0x11f0
49ce:	3f02           	        movew %d2,%sp@-
49d0:	6100 fecc      	        bsrw 0x489e
49d4:	4a42           	        tstw %d2
49d6:	671a           	        beqs 0x49f2
49d8:	33fc 0008 0048 0002     movew #8,0x480002
49e0:	33c2 0048 0004 	        movew %d2,0x480004
49e6:	4a79 004c 0000 	        tstw 0x4c0000
49ec:	08f8 0000 4934 	        bset #0,0x4934
49f2:	341f           	        movew %sp@+,%d2
49f4:	4e75           	        rts
49f6:	48e7 3e00      	        moveml %d2-%d6,%sp@-
49fa:	6100 fed0      	        bsrw 0x48cc
49fe:	4a42           	        tstw %d2
4a00:	6728           	        beqs 0x4a2a
4a02:	33fc 0008 0048 0002     movew #8,0x480002
4a0a:	33c2 0048 0004 	        movew %d2,0x480004
4a10:	33c3 0048 000a 	        movew %d3,0x48000a
4a16:	33c4 0048 000c 	        movew %d4,0x48000c
4a1c:	4a79 004c 0000 	        tstw 0x4c0000
4a22:	08f8 0000 4934 	        bset #0,0x4934
4a28:	604a           	        bras 0x4a74
4a2a:	08b8 0000 60eb 	        bclr #0,0x60eb
4a30:	6742           	        beqs 0x4a74
4a32:	3a38 60e0      	        movew 0x60e0,%d5
4a36:	0805 0000      	        btst #0,%d5
4a3a:	6738           	        beqs 0x4a74
4a3c:	4cb8 001c 60ee 	        movemw 0x60ee,%d2-%d4
4a42:	4cb8 0060 610e 	        movemw 0x610e,%d5-%d6
4a48:	ba43           	        cmpw %d3,%d5
4a4a:	6604           	        bnes 0x4a50
4a4c:	bc44           	        cmpw %d4,%d6
4a4e:	6724           	        beqs 0x4a74
4a50:	48b8 0018 610e 	        movemw %d3-%d4,0x610e
4a56:	33c2 0048 0002 	        movew %d2,0x480002
4a5c:	33c3 0048 000a 	        movew %d3,0x48000a
4a62:	33c4 0048 000c 	        movew %d4,0x48000c
4a68:	4a79 004c 0000 	        tstw 0x4c0000
4a6e:	08f8 0000 4934 	        bset #0,0x4934
4a74:	4cdf 007c      	        moveml %sp@+,%d2-%d6
4a78:	4e75           	        rts
4a7a:	48e7 3e00      	        moveml %d2-%d6,%sp@-
4a7e:	6100 fe7e      	        bsrw 0x48fe
4a82:	4a42           	        tstw %d2
4a84:	6728           	        beqs 0x4aae
4a86:	33fc 0008 0048 0002     movew #8,0x480002
4a8e:	33c2 0048 0004 	        movew %d2,0x480004
4a94:	33c3 0048 000a 	        movew %d3,0x48000a
4a9a:	33c4 0048 000c 	        movew %d4,0x48000c
4aa0:	4a79 004c 0000 	        tstw 0x4c0000
4aa6:	08f8 0000 4934 	        bset #0,0x4934
4aac:	604a           	        bras 0x4af8
4aae:	08b8 0001 60eb 	        bclr #1,0x60eb
4ab4:	6742           	        beqs 0x4af8
4ab6:	3a38 60e0      	        movew 0x60e0,%d5
4aba:	0805 0002      	        btst #2,%d5
4abe:	6738           	        beqs 0x4af8
4ac0:	4cb8 001c 60f8 	        movemw 0x60f8,%d2-%d4
4ac6:	4cb8 0060 6112 	        movemw 0x6112,%d5-%d6
4acc:	ba43           	        cmpw %d3,%d5
4ace:	6604           	        bnes 0x4ad4
4ad0:	bc44           	        cmpw %d4,%d6
4ad2:	6724           	        beqs 0x4af8
4ad4:	48b8 0018 6112 	        movemw %d3-%d4,0x6112
4ada:	33c2 0048 0002 	        movew %d2,0x480002
4ae0:	33c3 0048 000a 	        movew %d3,0x48000a
4ae6:	33c4 0048 000c 	        movew %d4,0x48000c
4aec:	4a79 004c 0000 	        tstw 0x4c0000
4af2:	08f8 0000 4934 	        bset #0,0x4934
4af8:	4cdf 007c      	        moveml %sp@+,%d2-%d6
4afc:	4e75           	        rts

4b3e:	0000 0000      	        orib #0,%d0
4b42:	11fc 0011 4b41 	        moveb #17,0x4b41
4b48:	6100 fb96      	        bsrw 0x46e0
4b4c:	11fc 008f 4b41 	        moveb #-113,0x4b41
4b52:	6100 fb8c      	        bsrw 0x46e0
4b56:	08f9 0000 0080 0007     bset #0,0x800007
4b5e:	4e75           	        rts
4b60:	11fc 0013 4b41 	        moveb #19,0x4b41
4b66:	6100 fb78      	        bsrw 0x46e0
4b6a:	11f8 4b40 4b41 	        moveb 0x4b40,0x4b41
4b70:	6100 fb6e      	        bsrw 0x46e0
4b74:	08f9 0000 0080 0007     bset #0,0x800007
4b7c:	4e75           	        rts
4b7e:	11fc 00a7 4b41 	        moveb #-89,0x4b41
4b84:	6100 fb5a      	        bsrw 0x46e0
4b88:	08f9 0000 0080 0007     bset #0,0x800007
4b90:	4e75           	        rts
4b92:	11fc 008b 4b41 	        moveb #-117,0x4b41
4b98:	6100 fb46      	        bsrw 0x46e0
4b9c:	08f9 0000 0080 0007     bset #0,0x800007
4ba4:	4e75           	        rts
4ba6:	48e7 e0c0      	        moveml %d0-%d2/%a0-%a1,%sp@-
4baa:	4278 4b3e      	        clrw 0x4b3e
4bae:	11fc 0080 4b40 	        moveb #-128,0x4b40
4bb4:	4238 4b41      	        clrb 0x4b41
4bb8:	207c 0000 4afe 	        moveal #19198,%a0
4bbe:	227c 0000 4b1e 	        moveal #19230,%a1
4bc4:	303c 001f      	        movew #31,%d0
4bc8:	4218           	        clrb %a0@+
4bca:	4219           	        clrb %a1@+
4bcc:	51c8 fffa      	        dbf %d0,0x4bc8
4bd0:	207c 0000 4afe 	        moveal #19198,%a0
4bd6:	303c 00ad      	        movew #173,%d0
4bda:	323c 0005      	        movew #5,%d1
4bde:	3400           	        movew %d0,%d2
4be0:	e64a           	        lsrw #3,%d2
4be2:	01f0 2000      	        bset %d0,%a0@(0,%d2:w)
4be6:	5240           	        addqw #1,%d0
4be8:	51c9 fff4      	        dbf %d1,0x4bde
4bec:	207c 0000 4c10 	        moveal #19472,%a0
4bf2:	303c 000d      	        movew #13,%d0
4bf6:	11d8 4b41      	        moveb %a0@+,0x4b41
4bfa:	6100 fae4      	        bsrw 0x46e0
4bfe:	51c8 fff6      	        dbf %d0,0x4bf6
4c02:	08f9 0000 0080 0007     bset #0,0x800007
4c0a:	4cdf 0307      	        moveml %sp@+,%d0-%d2/%a0-%a1
4c0e:	4e75           	        rts
4c10:	8a92           	        orl %a2@,%d5
4c12:	9aa0           	        subl %a0@-,%d5
4c14:	aeb6           	        .short 0xaeb6
4c16:	bac2           	        cmpaw %d2,%a5
4c18:	cad2           	        muluw %a2@,%d5
4c1a:	dae2           	        addaw %a2@-,%a5
4c1c:	e8f2           	        .short 0xe8f2
4c1e:	3f00           	        movew %d0,%sp@-
4c20:	1039 0080 0003 	        moveb 0x800003,%d0
4c26:	0800 0000      	        btst #0,%d0
4c2a:	6706           	        beqs 0x4c32
4c2c:	6100 fc0a      	        bsrw 0x4838
4c30:	6016           	        bras 0x4c48
4c32:	0800 0001      	        btst #1,%d0
4c36:	6710           	        beqs 0x4c48
4c38:	0800 0004      	        btst #4,%d0
4c3c:	660e           	        bnes 0x4c4c
4c3e:	0800 0005      	        btst #5,%d0
4c42:	661c           	        bnes 0x4c60
4c44:	6100 0034      	        bsrw 0x4c7a
4c48:	301f           	        movew %sp@+,%d0
4c4a:	4e73           	        rte
4c4c:	31fc 8012 60d4 	        movew #-32750,0x60d4
4c52:	6100 fba6      	        bsrw 0x47fa
4c56:	08f9 0004 0080 0007     bset #4,0x800007
4c5e:	60e4           	        bras 0x4c44
4c60:	31fc 8014 60d4 	        movew #-32748,0x60d4
4c66:	6100 fb92      	        bsrw 0x47fa
4c6a:	08f9 0004 0080 0007     bset #4,0x800007
4c72:	4a39 0080 0001 	        tstb 0x800001
4c78:	60ce           	        bras 0x4c48
4c7a:	48e7 c080      	        moveml %d0-%d1/%a0,%sp@-
4c7e:	4240           	        clrw %d0
4c80:	1039 0080 0001 	        moveb 0x800001,%d0
4c86:	3200           	        movew %d0,%d1
4c88:	0c40 0040      	        cmpiw #64,%d0
4c8c:	6d76           	        blts 0x4d04
4c8e:	0c40 00bb      	        cmpiw #187,%d0
4c92:	6e12           	        bgts 0x4ca6
4c94:	0c40 00b3      	        cmpiw #179,%d0
4c98:	6d0c           	        blts 0x4ca6
4c9a:	0441 00b3      	        subiw #179,%d1
4c9e:	207c 0000 4d22 	        moveal #19746,%a0
4ca4:	604c           	        bras 0x4cf2
4ca6:	207c 0000 4afe 	        moveal #19198,%a0
4cac:	e648           	        lsrw #3,%d0
4cae:	0330 0000      	        btst %d1,%a0@(0,%d0:w)
4cb2:	6606           	        bnes 0x4cba
4cb4:	31c1 4b3e      	        movew %d1,0x4b3e
4cb8:	600c           	        bras 0x4cc6
4cba:	207c 0000 4b1e 	        moveal #19230,%a0
4cc0:	0370 0000      	        bchg %d1,%a0@(0,%d0:w)
4cc4:	6604           	        bnes 0x4cca
4cc6:	08c1 0008      	        bset #8,%d1
4cca:	0838 0001 60ec 	        btst #1,0x60ec
4cd0:	662a           	        bnes 0x4cfc
4cd2:	6100 fa46      	        bsrw 0x471a
4cd6:	0241 00ff      	        andiw #255,%d1
4cda:	0c41 00b2      	        cmpiw #178,%d1
4cde:	6e24           	        bgts 0x4d04
4ce0:	0c41 00ad      	        cmpiw #173,%d1
4ce4:	6d1e           	        blts 0x4d04
4ce6:	3001           	        movew %d1,%d0
4ce8:	0441 00ad      	        subiw #173,%d1
4cec:	207c 0000 4d0a 	        moveal #19722,%a0
4cf2:	e549           	        lslw #2,%d1
4cf4:	2070 1000      	        moveal %a0@(0000000000000000,%d1:w),%a0
4cf8:	4e90           	        jsr %a0@
4cfa:	6008           	        bras 0x4d04
4cfc:	6100 0566      	        bsrw 0x5264
4d00:	6100 fe7c      	        bsrw 0x4b7e
4d04:	4cdf 0103      	        moveml %sp@+,%d0-%d1/%a0
4d08:	4e75           	        rts
4d0a:	0000 4d46      	        orib #70,%d0
4d0e:	0000 4d46      	        orib #70,%d0
4d12:	0000 4d46      	        orib #70,%d0
4d16:	0000 4d48      	        orib #72,%d0
4d1a:	0000 4d46      	        orib #70,%d0
4d1e:	0000 4d46      	        orib #70,%d0
4d22:	0000 4d74      	        orib #116,%d0
4d26:	0000 4da2      	        orib #-94,%d0
4d2a:	0000 4d46      	        orib #70,%d0
4d2e:	0000 4d46      	        orib #70,%d0
4d32:	0000 4db0      	        orib #-80,%d0
4d36:	0000 4db6      	        orib #-74,%d0
4d3a:	0000 4d46      	        orib #70,%d0
4d3e:	0000 4d46      	        orib #70,%d0
4d42:	0000 4d46      	        orib #70,%d0
4d46:	4e75           	        rts
4d48:	3200           	        movew %d0,%d1
4d4a:	207c 0000 4afe 	        moveal #19198,%a0
4d50:	e649           	        lsrw #3,%d1
4d52:	0130 1000      	        btst %d0,%a0@(0,%d1:w)
4d56:	670c           	        beqs 0x4d64
4d58:	207c 0000 4b1e 	        moveal #19230,%a0
4d5e:	0130 1000      	        btst %d0,%a0@(0,%d1:w)
4d62:	670e           	        beqs 0x4d72
4d64:	6100 fddc      	        bsrw 0x4b42
4d68:	0878 0002 4b40 	        bchg #2,0x4b40
4d6e:	6100 fdf0      	        bsrw 0x4b60
4d72:	4e75           	        rts
4d74:	48e7 f080      	        moveml %d0-%d3/%a0,%sp@-
4d78:	207c 0000 4b1e 	        moveal #19230,%a0
4d7e:	4240           	        clrw %d0
4d80:	343c 00ff      	        movew #255,%d2
4d84:	3200           	        movew %d0,%d1
4d86:	3600           	        movew %d0,%d3
4d88:	e648           	        lsrw #3,%d0
4d8a:	03b0 0000      	        bclr %d1,%a0@(0,%d0:w)
4d8e:	6704           	        beqs 0x4d94
4d90:	6100 f988      	        bsrw 0x471a
4d94:	3003           	        movew %d3,%d0
4d96:	5240           	        addqw #1,%d0
4d98:	51ca ffea      	        dbf %d2,0x4d84
4d9c:	4cdf 010f      	        moveml %sp@+,%d0-%d3/%a0
4da0:	4e75           	        rts
4da2:	3238 4b3e      	        movew 0x4b3e,%d1
4da6:	08c1 0008      	        bset #8,%d1
4daa:	6100 f96e      	        bsrw 0x471a
4dae:	4e75           	        rts
4db0:	6100 fde0      	        bsrw 0x4b92
4db4:	4e75           	        rts
4db6:	11fc 0080 4b41 	        moveb #-128,0x4b41
4dbc:	6100 f922      	        bsrw 0x46e0
4dc0:	08f9 0000 0080 0007     bset #0,0x800007
4dc8:	4e75           	        rts
4dca:	4a39 0080 0007 	        tstb 0x800007
4dd0:	13fc 004e 0080 0005     moveb #78,0x800005
4dd8:	13fc 007c 0080 0005     moveb #124,0x800005
4de0:	13fc 0000 0080 0007     moveb #0,0x800007
4de8:	0839 0001 0080 0003     btst #1,0x800003
4df0:	6706           	        beqs 0x4df8
4df2:	4a39 0080 0001 	        tstb 0x800001
4df8:	4e75           	        rts
4dfa:	0000 0000      	        orib #0,%d0

4e04:	0000 4dfe      	        orib #-2,%d0
4e08:	ffff           	        .short 0xffff
4e0a:	ffff           	        .short 0xffff
4e0c:	4238 4dfa      	        clrb 0x4dfa
4e10:	4238 4dfb      	        clrb 0x4dfb
4e14:	4238 4dfc      	        clrb 0x4dfc
4e18:	21fc ffff ffff 4e08     movel #-1,0x4e08
4e20:	11fc 0000 4dfd 	        moveb #0,0x4dfd
4e26:	31fc 0020 60f8 	        movew #32,0x60f8
4e2c:	42b8 60fa      	        clrl 0x60fa
4e30:	21fc ffff ffff 6112     movel #-1,0x6112
4e38:	4e75           	        rts
4e3a:	3f00           	        movew %d0,%sp@-
4e3c:	1039 0080 0023 	        moveb 0x800023,%d0
4e42:	0800 0000      	        btst #0,%d0
4e46:	670a           	        beqs 0x4e52
4e48:	08b9 0000 0080 0027     bclr #0,0x800027
4e50:	6016           	        bras 0x4e68
4e52:	0800 0001      	        btst #1,%d0
4e56:	6710           	        beqs 0x4e68
4e58:	0800 0004      	        btst #4,%d0
4e5c:	660e           	        bnes 0x4e6c
4e5e:	0800 0005      	        btst #5,%d0
4e62:	6612           	        bnes 0x4e76
4e64:	6100 002a      	        bsrw 0x4e90
4e68:	301f           	        movew %sp@+,%d0
4e6a:	4e73           	        rte
4e6c:	08f9 0004 0080 0027     bset #4,0x800027
4e74:	60ee           	        bras 0x4e64
4e76:	31fc 8015 60d4 	        movew #-32747,0x60d4
4e7c:	6100 f97c      	        bsrw 0x47fa
4e80:	08f9 0004 0080 0027     bset #4,0x800027
4e88:	4a39 0080 0021 	        tstb 0x800021
4e8e:	60d8           	        bras 0x4e68
4e90:	48e7 e080      	        moveml %d0-%d2/%a0,%sp@-
4e94:	1039 0080 0021 	        moveb 0x800021,%d0
4e9a:	0c38 0000 4dfd 	        cmpib #0,0x4dfd
4ea0:	6646           	        bnes 0x4ee8
4ea2:	4a00           	        tstb %d0
4ea4:	6a18           	        bpls 0x4ebe
4ea6:	11fc 0001 4dfa 	        moveb #1,0x4dfa
4eac:	207c 0000 4dfe 	        moveal #19966,%a0
4eb2:	10c0           	        moveb %d0,%a0@+
4eb4:	21c8 4e04      	        movel %a0,0x4e04
4eb8:	11c0 4dfc      	        moveb %d0,0x4dfc
4ebc:	602a           	        bras 0x4ee8
4ebe:	0c38 0006 4dfa 	        cmpib #6,0x4dfa
4ec4:	6e22           	        bgts 0x4ee8
4ec6:	2078 4e04      	        moveal 0x4e04,%a0
4eca:	10c0           	        moveb %d0,%a0@+
4ecc:	21c8 4e04      	        movel %a0,0x4e04
4ed0:	5238 4dfa      	        addqb #1,0x4dfa
4ed4:	0c38 0006 4dfa 	        cmpib #6,0x4dfa
4eda:	660c           	        bnes 0x4ee8
4edc:	6100 0010      	        bsrw 0x4eee
4ee0:	6100 003a      	        bsrw 0x4f1c
4ee4:	6100 008e      	        bsrw 0x4f74
4ee8:	4cdf 0107      	        moveml %sp@+,%d0-%d2/%a0
4eec:	4e75           	        rts
4eee:	48e7 8080      	        moveml %d0/%a0,%sp@-
4ef2:	207c 0000 4dfe 	        moveal #19966,%a0
4ef8:	3210           	        movew %a0@,%d1
4efa:	e309           	        lslb #1,%d1
4efc:	ed49           	        lslw #6,%d1
4efe:	8228 0002      	        orb %a0@(2),%d1
4f02:	3428 0002      	        movew %a0@(2),%d2
4f06:	e45a           	        rorw #2,%d2
4f08:	0242 c000      	        andiw #-16384,%d2
4f0c:	3028 0004      	        movew %a0@(4),%d0
4f10:	e308           	        lslb #1,%d0
4f12:	e248           	        lsrw #1,%d0
4f14:	8440           	        orw %d0,%d2
4f16:	4cdf 0101      	        moveml %sp@+,%d0/%a0
4f1a:	4e75           	        rts
4f1c:	3f00           	        movew %d0,%sp@-
4f1e:	3001           	        movew %d1,%d0
4f20:	9078 4e08      	        subw 0x4e08,%d0
4f24:	6a02           	        bpls 0x4f28
4f26:	4440           	        negw %d0
4f28:	0c40 0005      	        cmpiw #5,%d0
4f2c:	6b0a           	        bmis 0x4f38
4f2e:	31c1 4e08      	        movew %d1,0x4e08
4f32:	31c2 4e0a      	        movew %d2,0x4e0a
4f36:	6028           	        bras 0x4f60
4f38:	3002           	        movew %d2,%d0
4f3a:	9078 4e0a      	        subw 0x4e0a,%d0
4f3e:	6a02           	        bpls 0x4f42
4f40:	4440           	        negw %d0
4f42:	0c40 0005      	        cmpiw #5,%d0
4f46:	6b10           	        bmis 0x4f58
4f48:	31c1 4e08      	        movew %d1,0x4e08
4f4c:	31c2 4e0a      	        movew %d2,0x4e0a
4f50:	0838 0001 60ec 	        btst #1,0x60ec
4f56:	6614           	        bnes 0x4f6c
4f58:	3238 4e08      	        movew 0x4e08,%d1
4f5c:	3438 4e0a      	        movew 0x4e0a,%d2
4f60:	303c 0020      	        movew #32,%d0
4f64:	48b8 0007 60f8 	        movemw %d0-%d2,0x60f8
4f6a:	6004           	        bras 0x4f70
4f6c:	6100 02f6      	        bsrw 0x5264
4f70:	301f           	        movew %sp@+,%d0
4f72:	4e75           	        rts
4f74:	48e7 fc00      	        moveml %d0-%d5,%sp@-
4f78:	1038 4dfc      	        moveb 0x4dfc,%d0
4f7c:	e408           	        lsrb #2,%d0
4f7e:	0200 001f      	        andib #31,%d0
4f82:	1a38 4dfb      	        moveb 0x4dfb,%d5
4f86:	11c0 4dfb      	        moveb %d0,0x4dfb
4f8a:	b105           	        eorb %d0,%d5
4f8c:	6732           	        beqs 0x4fc0
4f8e:	0838 0001 60ec 	        btst #1,0x60ec
4f94:	6622           	        bnes 0x4fb8
4f96:	383c 0004      	        movew #4,%d4
4f9a:	3204           	        movew %d4,%d1
4f9c:	0905           	        btst %d4,%d5
4f9e:	6712           	        beqs 0x4fb2
4fa0:	0900           	        btst %d4,%d0
4fa2:	6704           	        beqs 0x4fa8
4fa4:	08c1 0008      	        bset #8,%d1
4fa8:	4cb8 000c 60fa 	        movemw 0x60fa,%d2-%d3
4fae:	6100 f7b2      	        bsrw 0x4762
4fb2:	51cc ffe6      	        dbf %d4,0x4f9a
4fb6:	6008           	        bras 0x4fc0
4fb8:	6100 02aa      	        bsrw 0x5264
4fbc:	6100 fbc0      	        bsrw 0x4b7e
4fc0:	4cdf 003f      	        moveml %sp@+,%d0-%d5
4fc4:	4e75           	        rts
4fc6:	4a39 0080 0027 	        tstb 0x800027
4fcc:	13fc 004e 0080 0025     moveb #78,0x800025
4fd4:	13fc 007e 0080 0025     moveb #126,0x800025
4fdc:	13fc 0000 0080 0027     moveb #0,0x800027
4fe4:	0839 0001 0080 0023     btst #1,0x800023
4fec:	6706           	        beqs 0x4ff4
4fee:	4a39 0080 0021 	        tstb 0x800021
4ff4:	4e75           	        rts

4ff6:	51f8 60e2      	        sf 0x60e2
4ffa:	0839 0001 0080 00c1     btst #1,0x8000c1  ;BBA present?
5002:	6602           	        bnes 0x5006
5004:	4e75           	        rts
5006:	31fc 800b 60d4 	        movew #-32757,0x60d4  ;BBA not present.
500c:	6100 f7ec      	        bsrw 0x47fa           ;Return error code.
5010:	60f2           	        bras 0x5004

5012:	51f8 60e2      	        sf 0x60e2
5016:	13fc 0000 0028 0000     moveb #0,0x280000
501e:	4e73           	        rte
5020:	51f8 60e2      	        sf 0x60e2
5024:	13fc 0000 0028 0000     moveb #0,0x280000
502c:	31fc 800a 60d4 	        movew #-32758,0x60d4
5032:	6100 f7c6      	        bsrw 0x47fa
5036:	6000 c02c      	        braw 0x1064
503a:	4a79 000c 0000 	        tstw 0xc0000
5040:	610c           	        bsrs 0x504e
5042:	4e75           	        rts
5044:	4a39 0080 00c0 	        tstb 0x8000c0
504a:	6102           	        bsrs 0x504e
504c:	4e73           	        rte
504e:	0839 0004 0080 00c1     btst #4,0x8000c1
5056:	6704           	        beqs 0x505c
5058:	6106           	        bsrs 0x5060
505a:	6002           	        bras 0x505e
505c:	611c           	        bsrs 0x507a
505e:	4e75           	        rts
5060:	4278 60de      	        clrw 0x60de
5064:	13fc 0001 0080 0041     moveb #1,0x800041
506c:	31fc 017c 60e8 	        movew #380,0x60e8
5072:	5378 60e8      	        subqw #1,0x60e8
5076:	66fa           	        bnes 0x5072
5078:	4e75           	        rts
507a:	31fc 0708 60de 	        movew #1800,0x60de
5080:	13fc 0000 0080 0041     moveb #0,0x800041
5088:	31fc 017c 60e8 	        movew #380,0x60e8
508e:	5378 60e8      	        subqw #1,0x60e8
5092:	66fa           	        bnes 0x508e
5094:	4e75           	        rts
5096:	4a78 60de      	        tstw 0x60de
509a:	6706           	        beqs 0x50a2
509c:	5378 60de      	        subqw #1,0x60de
50a0:	6702           	        beqs 0x50a4
50a2:	4e75           	        rts
50a4:	6000 c14a      	        braw 0x11f0

;18
50a8:	4a79 000e 0000 	        tstw 0xe0000
50ae:	31fc 0002 60d4 	        movew #2,0x60d4
50b4:	6100 f744      	        bsrw 0x47fa
50b8:	4e75           	        rts

;19
50ba:	4a79 000c 0000 	        tstw 0xc0000
50c0:	31fc 0002 60d4 	        movew #2,0x60d4
50c6:	6100 f732      	        bsrw 0x47fa
50ca:	4e75           	        rts

50cc:	2d22           	        movel %a2@-,%fp@-
50ce:	2506           	        movel %d6,%a2@-
50d0:	4a05           	        tstb %d5
50d2:	4848           	        .short 0x4848
50d4:	000b           	        .short 0x000b
50d6:	0000 0000      	        orib #0,%d0
50da:	0000 48e7      	        orib #-25,%d0
50de:	c0c0           	        muluw %d0,%d0
50e0:	207c 0080 00a1 	        moveal #8388769,%a0
50e6:	227c 0000 50cc 	        moveal #20684,%a1
50ec:	4200           	        clrb %d0
50ee:	323c 000f      	        movew #15,%d1
50f2:	1080           	        moveb %d0,%a0@
50f4:	1159 0002      	        moveb %a1@+,%a0@(2)
50f8:	5200           	        addqb #1,%d0
50fa:	51c9 fff6      	        dbf %d1,0x50f2
50fe:	31fc 1db0 60e6 	        movew #7600,0x60e6
5104:	5378 60e6      	        subqw #1,0x60e6
5108:	66fa           	        bnes 0x5104
510a:	4cdf 0303      	        moveml %sp@+,%d0-%d1/%a0-%a1
510e:	4e75           	        rts
5110:	4a39 0080 00e1 	        tstb 0x8000e1
5116:	6100 ff7e      	        bsrw 0x5096
511a:	6100 02ca      	        bsrw 0x53e6
511e:	6100 0364      	        bsrw 0x5484
5122:	6100 03d8      	        bsrw 0x54fc
5126:	6100 030a      	        bsrw 0x5432
512a:	0838 0001 60ec 	        btst #1,0x60ec
5130:	6718           	        beqs 0x514a
5132:	4a38 60e2      	        tstb 0x60e2
5136:	6612           	        bnes 0x514a
5138:	0838 0002 60ec 	        btst #2,0x60ec
513e:	670a           	        beqs 0x514a
5140:	6100 0122      	        bsrw 0x5264
5144:	08b8 0002 60ec 	        bclr #2,0x60ec
514a:	08f8 0000 60eb 	        bset #0,0x60eb
5150:	08f8 0001 60eb 	        bset #1,0x60eb
5156:	5378 60da      	        subqw #1,0x60da
515a:	0838 0000 60ec 	        btst #0,0x60ec
5160:	6704           	        beqs 0x5166
5162:	6100 f7d2      	        bsrw 0x4936
5166:	0838 0001 60ea 	        btst #1,0x60ea
516c:	6604           	        bnes 0x5172
516e:	6100 012c      	        bsrw 0x529c
5172:	4e73           	        rte
5174:	48e7 c080      	        moveml %d0-%d1/%a0,%sp@-
5178:	207c 0010 0000 	        moveal #1048576,%a0
517e:	4280           	        clrl %d0
5180:	323c 395f      	        movew #14687,%d1
5184:	6100 0056      	        bsrw 0x51dc
5188:	4cdf 0103      	        moveml %sp@+,%d0-%d1/%a0
518c:	4e75           	        rts

518e:	48e7 c080      	        moveml %d0-%d1/%a0,%sp@-
5192:	207c 0011 cb00 	        moveal #1166080,%a0
5198:	4280           	        clrl %d0
519a:	323c 395f      	        movew #14687,%d1
519e:	6100 003c      	        bsrw 0x51dc
51a2:	4cdf 0103      	        moveml %sp@+,%d0-%d1/%a0
51a6:	4e75           	        rts
51a8:	48e7 c080      	        moveml %d0-%d1/%a0,%sp@-
51ac:	207c 0010 0000 	        moveal #1048576,%a0
51b2:	70ff           	        moveq #-1,%d0
51b4:	323c 395f      	        movew #14687,%d1
51b8:	6100 0022      	        bsrw 0x51dc
51bc:	4cdf 0103      	        moveml %sp@+,%d0-%d1/%a0
51c0:	4e75           	        rts
51c2:	48e7 c080      	        moveml %d0-%d1/%a0,%sp@-
51c6:	207c 0011 cb00 	        moveal #1166080,%a0
51cc:	70ff           	        moveq #-1,%d0
51ce:	323c 395f      	        movew #14687,%d1
51d2:	6100 0008      	        bsrw 0x51dc
51d6:	4cdf 0103      	        moveml %sp@+,%d0-%d1/%a0
51da:	4e75           	        rts
51dc:	4a38 60e2      	        tstb 0x60e2
51e0:	66fa           	        bnes 0x51dc
51e2:	20c0           	        movel %d0,%a0@+
51e4:	20c0           	        movel %d0,%a0@+
51e6:	51c9 fffa      	        dbf %d1,0x51e2
51ea:	4e75           	        rts
51ec:	48e7 f080      	        moveml %d0-%d3/%a0,%sp@-
51f0:	207c 0010 0000 	        moveal #1048576,%a0
51f6:	303c aaaa      	        movew #-21846,%d0
51fa:	323c 5555      	        movew #21845,%d1
51fe:	343c 035f      	        movew #863,%d2
5202:	4a38 60e2      	        tstb 0x60e2
5206:	66fa           	        bnes 0x5202
5208:	363c 0021      	        movew #33,%d3
520c:	30c0           	        movew %d0,%a0@+
520e:	30c0           	        movew %d0,%a0@+
5210:	51cb fffa      	        dbf %d3,0x520c
5214:	c340           	        exg %d1,%d0
5216:	51ca fff0      	        dbf %d2,0x5208
521a:	4cdf 010f      	        moveml %sp@+,%d0-%d3/%a0
521e:	4e75           	        rts

;save screen
5220:	48e7 80c0      	        moveml %d0/%a0-%a1,%sp@-
5224:	6100 0c14      	        bsrw 0x5e3a ;restore fb under cursor
5228:	207c 0010 0000 	        moveal #1048576,%a0
522e:	227c 0011 cb00 	        moveal #1166080,%a1
5234:	303c 1caf      	        movew #7343,%d0
5238:	4a38 60e2      	        tstb 0x60e2
523c:	66fa           	        bnes 0x5238
523e:	22d8           	        movel %a0@+,%a1@+
5240:	22d8           	        movel %a0@+,%a1@+
5242:	22d8           	        movel %a0@+,%a1@+
5244:	22d8           	        movel %a0@+,%a1@+
5246:	51c8 fff6      	        dbf %d0,0x523e
524a:	08f8 0001 60ec 	        bset #1,0x60ec
5250:	6100 ff9a      	        bsrw 0x51ec
5254:	31fc 0400 60d4 	        movew #1024,0x60d4
525a:	6100 f59e      	        bsrw 0x47fa
525e:	4cdf 0301      	        moveml %sp@+,%d0/%a0-%a1
5262:	4e75           	        rts
5264:	48e7 80c0      	        moveml %d0/%a0-%a1,%sp@-
5268:	207c 0010 0000 	        moveal #1048576,%a0
526e:	227c 0011 cb00 	        moveal #1166080,%a1
5274:	303c 1caf      	        movew #7343,%d0
5278:	4a38 60e2      	        tstb 0x60e2
527c:	66fa           	        bnes 0x5278
527e:	20d9           	        movel %a1@+,%a0@+
5280:	20d9           	        movel %a1@+,%a0@+
5282:	20d9           	        movel %a1@+,%a0@+
5284:	20d9           	        movel %a1@+,%a0@+
5286:	51c8 fff6      	        dbf %d0,0x527e
528a:	08b8 0001 60ec 	        bclr #1,0x60ec
5290:	6100 09aa      	        bsrw 0x5c3c       ;draw cursor
5294:	4cdf 0301      	        moveml %sp@+,%d0/%a0-%a1
5298:	4e75           	        rts
529a:	0000 0839      	        orib #57,%d0
529e:	0004 0080      	        orib #-128,%d4
52a2:	00c1           	        .short 0x00c1
52a4:	6738           	        beqs 0x52de
52a6:	31f9 0048 0000 529a     movew 0x480000,0x529a
52ae:	0278 003f 529a 	        andiw #63,0x529a
52b4:	0c78 0013 529a 	        cmpiw #19,0x529a
52ba:	6610           	        bnes 0x52cc
52bc:	4279 0048 0000 	        clrw 0x480000
52c2:	46fc 2000      	        movew #8192,%sr
52c6:	6100 0018      	        bsrw 0x52e0
52ca:	6012           	        bras 0x52de
52cc:	0c78 0015 529a 	        cmpiw #21,0x529a
52d2:	660a           	        bnes 0x52de
52d4:	4279 0048 0000 	        clrw 0x480000
52da:	6100 008e      	        bsrw 0x536a
52de:	4e75           	        rts
52e0:	6100 005c      	        bsrw 0x533e
52e4:	3f38 60d4      	        movew 0x60d4,%sp@-
52e8:	3f38 60d6      	        movew 0x60d6,%sp@-
52ec:	3f38 60d8      	        movew 0x60d8,%sp@-
52f0:	31fc 0100 60d4 	        movew #256,0x60d4
52f6:	0838 0000 60ec 	        btst #0,0x60ec
52fc:	6708           	        beqs 0x5306
52fe:	31fc 0001 60d6 	        movew #1,0x60d6
5304:	6006           	        bras 0x530c
5306:	31fc 0003 60d6 	        movew #3,0x60d6
530c:	0838 0002 60ea 	        btst #2,0x60ea
5312:	6606           	        bnes 0x531a
5314:	6100 f4e4      	        bsrw 0x47fa
5318:	6014           	        bras 0x532e
531a:	31fc 0002 60d6 	        movew #2,0x60d6
5320:	6100 f4d8      	        bsrw 0x47fa
5324:	31fc 8010 60d4 	        movew #-32752,0x60d4
532a:	6100 f4ce      	        bsrw 0x47fa
532e:	31df 60d8      	        movew %sp@+,0x60d8
5332:	31df 60d6      	        movew %sp@+,0x60d6
5336:	31df 60d4      	        movew %sp@+,0x60d4
533a:	6000 bd28      	        braw 0x1064
533e:	08b8 0002 60ea 	        bclr #2,0x60ea
5344:	31fc 01a4 60da 	        movew #420,0x60da
534a:	4a38 60e2      	        tstb 0x60e2
534e:	670c           	        beqs 0x535c
5350:	4a78 60da      	        tstw 0x60da
5354:	66f4           	        bnes 0x534a
5356:	08f8 0002 60ea 	        bset #2,0x60ea
535c:	4e75           	        rts

;abort
535e:	08b8 0000 60ec 	        bclr #0,0x60ec
5364:	6100 ff7a      	        bsrw 0x52e0
5368:	4e75           	        rts
536a:	3f38 60d4      	        movew 0x60d4,%sp@-
536e:	3f38 60d6      	        movew 0x60d6,%sp@-
5372:	3f38 60d8      	        movew 0x60d8,%sp@-
5376:	31fc 0200 60d4 	        movew #512,0x60d4
537c:	0838 0000 60ec 	        btst #0,0x60ec
5382:	670e           	        beqs 0x5392
5384:	31fc 0001 60d6 	        movew #1,0x60d6
538a:	31f8 60dc 60d8 	        movew 0x60dc,0x60d8
5390:	6006           	        bras 0x5398
5392:	31fc 0002 60d6 	        movew #2,0x60d6
5398:	6100 f460      	        bsrw 0x47fa
539c:	31df 60d8      	        movew %sp@+,0x60d8
53a0:	31df 60d6      	        movew %sp@+,0x60d6
53a4:	31df 60d4      	        movew %sp@+,0x60d4
53a8:	4e75           	        rts
53aa:	5378 60dc      	        subqw #1,0x60dc
53ae:	6606           	        bnes 0x53b6
53b0:	31fc 7fff 60dc 	        movew #32767,0x60dc
53b6:	4e75           	        rts

;status
53b8:	08b8 0000 60ec 	        bclr #0,0x60ec
53be:	6100 ffaa      	        bsrw 0x536a
53c2:	4e75           	        rts
53c4:	003c ff00      	        orib #0,%ccr
53c8:	3f00           	        movew %d0,%sp@-
53ca:	103c 0030      	        moveb #48,%d0
53ce:	0a00 00ff      	        eorib #-1,%d0
53d2:	11c0 53c6      	        moveb %d0,0x53c6
53d6:	13c0 0080 0081 	        moveb %d0,0x800081
53dc:	31fc 003c 53c4 	        movew #60,0x53c4
53e2:	301f           	        movew %sp@+,%d0
53e4:	4e75           	        rts
53e6:	5378 53c4      	        subqw #1,0x53c4
53ea:	6e14           	        bgts 0x5400
53ec:	31fc 003c 53c4 	        movew #60,0x53c4
53f2:	0a38 0030 53c6 	        eorib #48,0x53c6
53f8:	13f8 53c6 0080 0081     moveb 0x53c6,0x800081
5400:	4e75           	        rts
5402:	0000 0000      	        orib #0,%d0
5406:	0004 0003      	        orib #3,%d4
540a:	0000 0700      	        orib #0,%d0
540e:	4278 540a      	        clrw 0x540a
5412:	42b8 60f0      	        clrl 0x60f0
5416:	42b8 60f4      	        clrl 0x60f4  ;cursor position
541a:	42b8 5402      	        clrl 0x5402
541e:	31fc 0004 5406 	        movew #4,0x5406
5424:	31fc 0003 5408 	        movew #3,0x5408
542a:	11fc 0007 540c 	        moveb #7,0x540c
5430:	4e75           	        rts
5432:	48e7 fc00      	        moveml %d0-%d5,%sp@-
5436:	1039 0080 00c1 	        moveb 0x8000c1,%d0
543c:	ea08           	        lsrb #5,%d0
543e:	1a38 540c      	        moveb 0x540c,%d5
5442:	b105           	        eorb %d0,%d5
5444:	6738           	        beqs 0x547e
5446:	11c0 540c      	        moveb %d0,0x540c
544a:	0838 0001 60ec 	        btst #1,0x60ec
5450:	6622           	        bnes 0x5474
5452:	383c 0002      	        movew #2,%d4
5456:	3204           	        movew %d4,%d1
5458:	0905           	        btst %d4,%d5
545a:	6712           	        beqs 0x546e
545c:	0900           	        btst %d4,%d0
545e:	6604           	        bnes 0x5464
5460:	08c1 0008      	        bset #8,%d1
5464:	4cb8 000c 60f0 	        movemw 0x60f0,%d2-%d3
546a:	6100 f342      	        bsrw 0x47ae
546e:	51cc ffe6      	        dbf %d4,0x5456
5472:	600a           	        bras 0x547e
5474:	08f8 0002 60ec 	        bset #2,0x60ec
547a:	6100 f702      	        bsrw 0x4b7e
547e:	4cdf 003f      	        moveml %sp@+,%d0-%d5
5482:	4e75           	        rts
5484:	48e7 f000      	        moveml %d0-%d3,%sp@-
5488:	3039 0080 0060 	        movew 0x800060,%d0
548e:	3238 540a      	        movew 0x540a,%d1
5492:	b240           	        cmpw %d0,%d1
5494:	6760           	        beqs 0x54f6
5496:	31c0 540a      	        movew %d0,0x540a
549a:	0838 0001 60ec 	        btst #1,0x60ec
54a0:	664e           	        bnes 0x54f0
54a2:	3200           	        movew %d0,%d1
54a4:	0240 00ff      	        andiw #255,%d0
54a8:	e049           	        lsrw #8,%d1
54aa:	4cb8 000c 5402 	        movemw 0x5402,%d2-%d3
54b0:	48b8 0003 5402 	        movemw %d0-%d1,0x5402
54b6:	9042           	        subw %d2,%d0
54b8:	4880           	        extw %d0
54ba:	9243           	        subw %d3,%d1
54bc:	4881           	        extw %d1
54be:	3400           	        movew %d0,%d2
54c0:	6a02           	        bpls 0x54c4
54c2:	4442           	        negw %d2
54c4:	b478 5408      	        cmpw 0x5408,%d2
54c8:	6e0c           	        bgts 0x54d6
54ca:	3601           	        movew %d1,%d3
54cc:	6a02           	        bpls 0x54d0
54ce:	4443           	        negw %d3
54d0:	b678 5408      	        cmpw 0x5408,%d3
54d4:	6f08           	        bles 0x54de
54d6:	c1f8 5406      	        mulsw 0x5406,%d0
54da:	c3f8 5406      	        mulsw 0x5406,%d1
54de:	4cb8 000c 60f4 	        movemw 0x60f4,%d2-%d3 ;cursor position
54e4:	d440           	        addw %d0,%d2
54e6:	9641           	        subw %d1,%d3
54e8:	48b8 000c 60f4 	        movemw %d2-%d3,0x60f4
54ee:	6006           	        bras 0x54f6
54f0:	08f8 0002 60ec 	        bset #2,0x60ec
54f6:	4cdf 000f      	        moveml %sp@+,%d0-%d3
54fa:	4e75           	        rts

;update cursor on screen?
54fc:	48e7 e000      	        moveml %d0-%d2,%sp@-
5500:	4cb8 0006 60f4 	        movemw 0x60f4,%d1-%d2 ;cursor position
5506:	0c78 0001 60e4 	        cmpiw #1,0x60e4       ;cursor device
550c:	660c           	        bnes 0x551a
550e:	6100 06dc      	        bsrw 0x5bec
5512:	48b8 0006 60f4 	        movemw %d1-%d2,0x60f4
5518:	600a           	        bras 0x5524
551a:	303c 0040      	        movew #64,%d0
551e:	48b8 0007 60ee 	        movemw %d0-%d2,0x60ee
5524:	4cdf 0007      	        moveml %sp@+,%d0-%d2
5528:	4e75           	        rts

552a:	0000 0040      	        orib #64,%d0
552e:	0040 0008      	        oriw #8,%d0
5532:	0004 0040      	        orib #64,%d4
5bb6:	0000 0440      	        orib #64,%d0
5bba:	0000 0360      	        orib #96,%d0
5bbe:	0010 0000      	        orib #0,%a0@  ;fb address under cursor

5bca:	4238 552a      	        clrb 0x552a
5bce:	4278 60e0      	        clrw 0x60e0
5bd2:	4278 60e4      	        clrw 0x60e4 ;cursor device
5bd6:	42b8 60fe      	        clrl 0x60fe
5bda:	42b8 6102      	        clrl 0x6102 ;tip x
5bde:	42b8 6106      	        clrl 0x6106 ;center x
5be2:	42b8 610a      	        clrl 0x610a
5be6:	4238 60aa      	        clrb 0x60aa
5bea:	4e75           	        rts

;check cursor position
5bec:	48e7 1800      	        moveml %d3-%d4,%sp@-
5bf0:	4cb8 0018 60fe 	        movemw 0x60fe,%d3-%d4
5bf6:	b278 5bb6      	        cmpw 0x5bb6,%d1
5bfa:	6c06           	        bges 0x5c02
5bfc:	3238 5bb6      	        movew 0x5bb6,%d1
5c00:	600a           	        bras 0x5c0c
5c02:	b278 5bb8      	        cmpw 0x5bb8,%d1
5c06:	6f04           	        bles 0x5c0c
5c08:	3238 5bb8      	        movew 0x5bb8,%d1
5c0c:	b478 5bba      	        cmpw 0x5bba,%d2
5c10:	6c06           	        bges 0x5c18
5c12:	3438 5bba      	        movew 0x5bba,%d2
5c16:	600a           	        bras 0x5c22
5c18:	b478 5bbc      	        cmpw 0x5bbc,%d2
5c1c:	6f04           	        bles 0x5c22
5c1e:	3438 5bbc      	        movew 0x5bbc,%d2
5c22:	b243           	        cmpw %d3,%d1
5c24:	6604           	        bnes 0x5c2a
5c26:	b444           	        cmpw %d4,%d2
5c28:	670c           	        beqs 0x5c36
5c2a:	48b8 0006 60fe 	        movemw %d1-%d2,0x60fe
5c30:	08f8 0000 552a 	        bset #0,0x552a
5c36:	4cdf 0018      	        moveml %sp@+,%d3-%d4
5c3a:	4e75           	        rts

;draw cursor
5c3c:	48e7 f0c0      	        moveml %d0-%d3/%a0-%a1,%sp@-
5c40:	08b8 0000 552a 	        bclr #0,0x552a
5c46:	0838 0002 552a 	        btst #2,0x552a
5c4c:	6700 00e4      	        beqw 0x5d32
5c50:	0c78 0001 60e4 	        cmpiw #1,0x60e4  ;cursor device
5c56:	6600 00da      	        bnew 0x5d32
5c5a:	0838 0001 552a 	        btst #1,0x552a
5c60:	6600 00d0      	        bnew 0x5d32
5c64:	4cb8 0006 60fe 	        movemw 0x60fe,%d1-%d2 ;cursor position
5c6a:	48b8 0006 610a 	        movemw %d1-%d2,0x610a
5c70:	303c 0010      	        movew #16,%d0
5c74:	48b8 0007 60ee 	        movemw %d0-%d2,0x60ee ;cursor position
5c7a:	6100 00bc      	        bsrw 0x5d38 ;draw cursor?
5c7e:	6100 0116      	        bsrw 0x5d96
5c82:	4a78 3b36      	        tstw 0x3b36 ;msk w
5c86:	6f00 00aa      	        blew 0x5d32
5c8a:	4a78 3b38      	        tstw 0x3b38 ;msk h
5c8e:	6f00 00a2      	        blew 0x5d32
5c92:	6100 e0e6      	        bsrw 0x3d7a
5c96:	6100 0150      	        bsrw 0x5de8
5c9a:	3038 6032      	        movew 0x6032,%d0  ;dst x
5c9e:	2078 3b32      	        moveal 0x3b32,%a0 ;dst address
5ca2:	e848           	        lsrw #4,%d0
5ca4:	e348           	        lslw #1,%d0
5ca6:	d0c0           	        addaw %d0,%a0
5ca8:	21c8 5bbe      	        movel %a0,0x5bbe  ;fb address under cursor
5cac:	227c 0000 5936 	        moveal #22838,%a1 ;saved fb under cursor
5cb2:	303c 0086      	        movew #134,%d0
5cb6:	9078 5530      	        subw 0x5530,%d0
5cba:	3238 5532      	        movew 0x5532,%d1
5cbe:	3438 5534      	        movew 0x5534,%d2
5cc2:	5342           	        subqw #1,%d2
5cc4:	4a38 60e2      	        tstb 0x60e2
5cc8:	66fa           	        bnes 0x5cc4
5cca:	3601           	        movew %d1,%d3
5ccc:	32d8           	        movew %a0@+,%a1@+
5cce:	51cb fffc      	        dbf %d3,0x5ccc
5cd2:	d0c0           	        addaw %d0,%a0
5cd4:	51ca fff4      	        dbf %d2,0x5cca
5cd8:	33f8 60ac 0030 0000     movew 0x60ac,0x300000 ;bba command
5ce0:	23f8 3b2a 0030 004e     movel 0x3b2a,0x30004e ;cursor src address
5ce8:	33f8 5fa6 0030 0052     movew 0x5fa6,0x300052 ;cursor src x
5cf0:	23f8 3b2e 0030 0056     movel 0x3b2e,0x300056 ;cursor msk a
5cf8:	33f8 601e 0030 005a     movew 0x601e,0x30005a ;cursor msk x
5d00:	23f8 3b32 0030 005e     movel 0x3b32,0x30005e ;cursor dst a
5d08:	33f8 6032 0030 0062     movew 0x6032,0x300062 ;cursor dst x
5d10:	33f8 3b36 0030 0066     movew 0x3b36,0x300066 ;cursor msk w
5d18:	33f8 3b38 0030 0068     movew 0x3b38,0x300068 ;cursor msk h
5d20:	50f8 60e2      	        st 0x60e2
5d24:	13fc 0001 0028 0000     moveb #1,0x280000
5d2c:	08f8 0001 552a 	        bset #1,0x552a
5d32:	4cdf 030f      	        moveml %sp@+,%d0-%d3/%a0-%a1
5d36:	4e75           	        rts

;draw cursor?
5d38:	31f8 60aa 5f94 	        movew 0x60aa,0x5f94   ;flags
5d3e:	21fc 0000 5536 5f9c     movel #21814,0x5f9c   ;src address
5d46:	31fc 0008 5faa 	        movew #8,0x5faa       ;src W
5d4c:	4278 5fa6      	        clrw 0x5fa6           ;src x
5d50:	4278 5fa8      	        clrw 0x5fa8           ;src y
5d54:	21fc 0000 5736 6014     movel #22326,0x6014   ;msk address
5d5c:	31fc 0008 6022 	        movew #8,0x6022       ;msk W
5d62:	4278 601e      	        clrw 0x601e           ;msk x
5d66:	4278 6020      	        clrw 0x6020           ;msk y
5d6a:	31f8 552c 3b36 	        movew 0x552c,0x3b36   ;msk w
5d70:	31f8 552e 3b38 	        movew 0x552e,0x3b38
5d76:	21fc 0010 0000 6028     movel #1048576,0x6028 ;dst address
5d7e:	31fc 0088 6036 	        movew #136,0x6036 ;dst W
5d84:	9278 6102      	        subw 0x6102,%d1  ;tip x
5d88:	9478 6104      	        subw 0x6104,%d2  ;tip y
5d8c:	31c1 6032      	        movew %d1,0x6032 ;dst x
5d90:	31c2 6034      	        movew %d2,0x6034 ;dst y
5d94:	4e75           	        rts

5d96:	3f00           	        movew %d0,%sp@-
5d98:	3038 6032      	        movew 0x6032,%d0 ;dst x
5d9c:	6a12           	        bpls 0x5db0
5d9e:	9178 5fa6      	        subw %d0,0x5fa6 ;src x
5da2:	9178 601e      	        subw %d0,0x601e ;msk x
5da6:	4278 6032      	        clrw 0x6032     ;dst x
5daa:	d178 3b36      	        addw %d0,0x3b36 ;msk w
5dae:	600e           	        bras 0x5dbe
5db0:	d078 3b36      	        addw 0x3b36,%d0 ;msk w
5db4:	0440 0440      	        subiw #1088,%d0
5db8:	6f04           	        bles 0x5dbe
5dba:	9178 3b36      	        subw %d0,0x3b36 ;msk w
5dbe:	3038 6034      	        movew 0x6034,%d0 ;dst y
5dc2:	6a12           	        bpls 0x5dd6
5dc4:	9178 5fa8      	        subw %d0,0x5fa8 ;src y
5dc8:	9178 6020      	        subw %d0,0x6020 ;msk y
5dcc:	4278 6034      	        clrw 0x6034     ;dst y
5dd0:	d178 3b38      	        addw %d0,0x3b38 ;msk h
5dd4:	600e           	        bras 0x5de4
5dd6:	d078 3b38      	        addw 0x3b38,%d0 ;msk h
5dda:	0440 0360      	        subiw #864,%d0
5dde:	6f04           	        bles 0x5de4
5de0:	9178 3b38      	        subw %d0,0x3b38
5de4:	301f           	        movew %sp@+,%d0
5de6:	4e75           	        rts

5de8:	48e7 c000      	        moveml %d0-%d1,%sp@-
5dec:	3038 6032      	        movew 0x6032,%d0 ;dst x
5df0:	3200           	        movew %d0,%d1
5df2:	0240 fff0      	        andiw #-16,%d0
5df6:	31c0 5bc2      	        movew %d0,0x5bc2
5dfa:	d278 3b36      	        addw 0x3b36,%d1 ;msk w
5dfe:	0641 000f      	        addiw #15,%d1
5e02:	0041 000f      	        oriw #15,%d1
5e06:	31c1 5bc4      	        movew %d1,0x5bc4
5e0a:	3038 6034      	        movew 0x6034,%d0 ;dst y
5e0e:	31c0 5bc6      	        movew %d0,0x5bc6
5e12:	d078 3b38      	        addw 0x3b38,%d0 ;msk h
5e16:	31c0 5bc8      	        movew %d0,0x5bc8
5e1a:	3038 3b36      	        movew 0x3b36,%d0 ;msk w
5e1e:	0640 000f      	        addiw #15,%d0
5e22:	e848           	        lsrw #4,%d0
5e24:	31c0 5532      	        movew %d0,0x5532
5e28:	e348           	        lslw #1,%d0
5e2a:	31c0 5530      	        movew %d0,0x5530
5e2e:	31f8 3b38 5534 	        movew 0x3b38,0x5534 ;msk h
5e34:	4cdf 0003      	        moveml %sp@+,%d0-%d1
5e38:	4e75           	        rts

;restore fb under cursor
5e3a:	48e7 f0c0      	        moveml %d0-%d3/%a0-%a1,%sp@-
5e3e:	0838 0001 552a 	        btst #1,0x552a
5e44:	6736           	        beqs 0x5e7c
5e46:	207c 0000 5936 	        moveal #22838,%a0 ;saved fb under cursor
5e4c:	2278 5bbe      	        moveal 0x5bbe,%a1 ;fb address under cursor
5e50:	303c 0086      	        movew #134,%d0
5e54:	9078 5530      	        subw 0x5530,%d0
5e58:	3238 5532      	        movew 0x5532,%d1
5e5c:	3438 5534      	        movew 0x5534,%d2
5e60:	5342           	        subqw #1,%d2
5e62:	4a38 60e2      	        tstb 0x60e2
5e66:	66fa           	        bnes 0x5e62
5e68:	3601           	        movew %d1,%d3
5e6a:	32d8           	        movew %a0@+,%a1@+
5e6c:	51cb fffc      	        dbf %d3,0x5e6a
5e70:	d2c0           	        addaw %d0,%a1
5e72:	51ca fff4      	        dbf %d2,0x5e68
5e76:	08b8 0001 552a 	        bclr #1,0x552a
5e7c:	4cdf 030f      	        moveml %sp@+,%d0-%d3/%a0-%a1
5e80:	4e75           	        rts

5e82:	3f00           	        movew %d0,%sp@-
5e84:	0838 0001 552a 	        btst #1,0x552a
5e8a:	673c           	        beqs 0x5ec8
5e8c:	0cb8 0010 0000 6028     cmpil #1048576,0x6028 ;dst address
5e94:	6632           	        bnes 0x5ec8
5e96:	3038 5bc6      	        movew 0x5bc6,%d0
5e9a:	b078 36b4      	        cmpw 0x36b4,%d0
5e9e:	6e28           	        bgts 0x5ec8
5ea0:	3038 5bc8      	        movew 0x5bc8,%d0
5ea4:	b078 36b2      	        cmpw 0x36b2,%d0
5ea8:	6d1e           	        blts 0x5ec8
5eaa:	3038 5bc2      	        movew 0x5bc2,%d0
5eae:	b078 36ac      	        cmpw 0x36ac,%d0
5eb2:	6e14           	        bgts 0x5ec8
5eb4:	3038 5bc4      	        movew 0x5bc4,%d0
5eb8:	b078 36a6      	        cmpw 0x36a6,%d0
5ebc:	6d0a           	        blts 0x5ec8
5ebe:	08f8 0000 552a 	        bset #0,0x552a
5ec4:	6100 ff74      	        bsrw 0x5e3a       ;restore fb under cursor
5ec8:	301f           	        movew %sp@+,%d0
5eca:	4e75           	        rts

5ecc:	48e7 f800      	        moveml %d0-%d4,%sp@-
5ed0:	0838 0001 552a 	        btst #1,0x552a
5ed6:	6700 00aa      	        beqw 0x5f82
5eda:	3038 5bc2      	        movew 0x5bc2,%d0  ;
5ede:	3238 5bc4      	        movew 0x5bc4,%d1
5ee2:	3438 5bc6      	        movew 0x5bc6,%d2
5ee6:	3638 5bc8      	        movew 0x5bc8,%d3
5eea:	0838 0001 5f94 	        btst #1,0x5f94    ;src bitmap?
5ef0:	672a           	        beqs 0x5f1c
5ef2:	0cb8 0010 0000 5f9c     cmpil #1048576,0x5f9c ;src address
5efa:	6620           	        bnes 0x5f1c
5efc:	3838 5fa8      	        movew 0x5fa8,%d4 ;src y
5f00:	b843           	        cmpw %d3,%d4
5f02:	6e18           	        bgts 0x5f1c
5f04:	d878 3b38      	        addw 0x3b38,%d4
5f08:	b842           	        cmpw %d2,%d4
5f0a:	6f10           	        bles 0x5f1c
5f0c:	3838 5fa6      	        movew 0x5fa6,%d4 ;src x
5f10:	b841           	        cmpw %d1,%d4
5f12:	6e08           	        bgts 0x5f1c
5f14:	d878 3b36      	        addw 0x3b36,%d4  ;msk w
5f18:	b840           	        cmpw %d0,%d4
5f1a:	6e5c           	        bgts 0x5f78
5f1c:	0838 0003 5f94 	        btst #3,0x5f94   ;msk bitmap?
5f22:	672a           	        beqs 0x5f4e
5f24:	0cb8 0010 0000 6014     cmpil #1048576,0x6014 ;msk address
5f2c:	6620           	        bnes 0x5f4e
5f2e:	3838 6020      	        movew 0x6020,%d4 ;msk y
5f32:	b843           	        cmpw %d3,%d4
5f34:	6e18           	        bgts 0x5f4e
5f36:	d878 3b38      	        addw 0x3b38,%d4  ;msk h
5f3a:	b842           	        cmpw %d2,%d4
5f3c:	6f10           	        bles 0x5f4e
5f3e:	3838 601e      	        movew 0x601e,%d4 ;msk x
5f42:	b841           	        cmpw %d1,%d4
5f44:	6e08           	        bgts 0x5f4e
5f46:	d878 3b36      	        addw 0x3b36,%d4  ;msk w
5f4a:	b840           	        cmpw %d0,%d4
5f4c:	6e2a           	        bgts 0x5f78
5f4e:	0cb8 0010 0000 6028     cmpil #1048576,0x6028 ;dst address
5f56:	662a           	        bnes 0x5f82
5f58:	3838 6034      	        movew 0x6034,%d4 ;dst y
5f5c:	b843           	        cmpw %d3,%d4
5f5e:	6e22           	        bgts 0x5f82
5f60:	d878 3b38      	        addw 0x3b38,%d4 ;msk h
5f64:	b842           	        cmpw %d2,%d4
5f66:	6f1a           	        bles 0x5f82
5f68:	3838 6032      	        movew 0x6032,%d4 ;dst x
5f6c:	b841           	        cmpw %d1,%d4
5f6e:	6e12           	        bgts 0x5f82
5f70:	d878 3b36      	        addw 0x3b36,%d4 ;msk w
5f74:	b840           	        cmpw %d0,%d4
5f76:	6f0a           	        bles 0x5f82
5f78:	08f8 0000 552a 	        bset #0,0x552a
5f7e:	6100 feba      	        bsrw 0x5e3a     ;restore fb under cursor
5f82:	4cdf 001f      	        moveml %sp@+,%d0-%d4
5f86:	4e75           	        rts

5f88:	0008 0000 ;parameter address from host
5f8c:   0008 5f8e ;address of packet (header + 8)
5f90:	0000 0000 ;modifier
5f94:   0000      ;flags

;packet from host
5f96:   0000   ;bba command
5f98:	0003   ;function
5f9a:	0000   ;const
5f9c:	0010 0000      	        orib #0,%a0@    ;src address
5fa0:	0440 0360      	        subiw #864,%d0  ;src wh
5fa4:	0001 0000      	        orib #0,%d1     ;src bx
5fa8:	0000 0088      	        orib #-120,%d0  ;src yW
5fac:	0000 0000      	        orib #0,%d0     ;const
5fb0:	0000 5ff4      	        orib #-12,%d0   ;tile a
5fb4:	0000 0000      	        orib #0,%d0
5fb8:	0003 0000      	        orib #0,%d3
5fbc:	0010 0000      	        orib #0,%a0@
5fc0:	0440 0360      	        subiw #864,%d0
5fc4:	0001 0000      	        orib #0,%d1
5fc8:	0000 0088      	        orib #-120,%d0
5fcc:	0000 0000      	        orib #0,%d0
5fd0:	0000 5ff4      	        orib #-12,%d0
5fd4:	0000 0000      	        orib #0,%d0
5fd8:	0003 0000      	        orib #0,%d3
5fdc:	0010 0000      	        orib #0,%a0@
5fe0:	0440 0360      	        subiw #864,%d0
5fe4:	0001 0000      	        orib #0,%d1
5fe8:	0000 0088      	        orib #-120,%d0
5fec:	0000 0000      	        orib #0,%d0
5ff0:	0000 6060      	        orib #96,%d0
5ff4:   0000 0000 0000 0000     ;tile data
5ff8:   0000 0000 0000 0000
5ffc:   0000 0000 0000 0000
6000:   0000 0000 0000 0000

6014:	0010 0000      	        ;msk address
6018:	0440 0360      	        ;msk wh
601c:	0001 0000      	        ;msk bx
6020:	0000 0088      	        ;msk yW
6024:	0000 0000      	        
6028:	0010 0000      	        ;dst address
602c:	0440 0360      	        ;dst wh
6030:	0001 0000      	        ;dst bx
6034:	0000 0088      	        ;dst yW
6038:	0003 0008      	        
        0000 0000
	0000 0000
        0000 0000
	0000 0000
6048:	0008           	        .short 0x0008
        0000 0000 0000 0000
        0000 0000 0000 0000
	0000
605a:	0008           	        .short 0x0008
605c:	0000 0000      	        orib #0,%d0

6080:	0000 0000      	        orib #0,%d0
6084:	0013 9600      	        orib #0,%a3@
6088:	0000 0000      	        orib #0,%d0
608c:	0008           	        .short 0x0008
608e:	0000 0000      	        orib #0,%d0
6092:	0008           	        .short 0x0008
6094:	0000 0000      	        orib #0,%d0
6098:	0008           	        .short 0x0008
60aa:	0000 0020      	        orib #32,%d0
60ae:	0005

6114:	0000 0006      	        orib #6,%d0
6118:	0002 01e0      	        orib #-32,%d2
611c:	000e           	        .short 0x000e
611e:	0003 0140      	        orib #64,%d3
6122:	001a 0004      	        orib #4,%a2@+
6126:	00f0           	        .short 0x00f0
6128:	0028 0005 00c0 	        orib #5,%a0@(192)
612e:	003a           	        .short 0x003a
6130:	0006 00a0      	        orib #-96,%d6
6134:	0067 0008      	        oriw #8,%sp@-
6138:	0078 00a2 000a 	        oriw #162,0xa
613e:	0060 00e9      	        oriw #233,%a0@-
6142:	000c           	        .short 0x000c
6144:	0050 016c      	        oriw #364,%a0@
6148:	000f           	        .short 0x000f
614a:	0040 0288      	        oriw #648,%d0
614e:	0014 0030      	        orib #48,%a4@
6152:	03a5           	        bclr %d1,%a5@-
6154:	0018 0028      	        orib #40,%a0@+
6158:	05b3 001e      	        bclr %d2,%a3@(0x1e,%d0:w)
615c:	0020 0a22      	        orib #34,%a0@-
6160:	0028 0018 16cb 	        orib #24,%a0@(5835)
6166:	003c 0010      	        orib #16,%ccr
616a:	7fff           	        .short 0x7fff
616c:	0078 0008 ff2c 	        oriw #8,0xffffff2c
6172:	7ffc           	        .short 0x7ffc
6174:	00d9           	        .short 0x00d9
6176:	ffff           	        .short 0xffff
6178:	fe5e           	        .short 0xfe5e
617a:	7fef           	        .short 0x7fef
617c:	01b8 fffa      	        bclr %d0,0xfffffffa
6180:	fd96           	        .short 0xfd96
6182:	7fda           	        .short 0x7fda
6184:	029c fff3 fcd3 	        andil #-787245,%a4@+
618a:	7fbd           	        .short 0x7fbd
618c:	0386           	        bclr %d1,%d6
618e:	ffea           	        .short 0xffea
6190:	fc17           	        .short 0xfc17
6192:	7f97           	        .short 0x7f97
6194:	0476 ffdd fb5f 	        subiw #-35,%fp@(0000000000000000)@(000000007f69056a)
619a:	7f69 056a 
619e:	ffce           	        .short 0xffce
61a0:	faae           	        .short 0xfaae
61a2:	7f32           	        .short 0x7f32
61a4:	0664 ffbc      	        addiw #-68,%a4@-
61a8:	fa02           	        .short 0xfa02
61aa:	7ef3           	        moveq #-13,%d7
61ac:	0764           	        bchg %d3,%a4@-
61ae:	ffa7           	        .short 0xffa7
61b0:	f95d           	        .short 0xf95d
61b2:	7eac           	        moveq #-84,%d7
61b4:	0868 ff8f f8bd 	        bchg #-113,%a0@(-1859)
61ba:	7e5d           	        moveq #93,%d7
61bc:	0972 ff75 f822 7e05     bchg %d4,%a2@(fffffffff8227e05)@(0000000000000000)
61c4:	0a80 ff58 f78e 	        eoril #-10946674,%d0
61ca:	7da5           	        .short 0x7da5
61cc:	0b94           	        bclr %d5,%a4@
61ce:	ff39           	        .short 0xff39
61d0:	f6ff           	        .short 0xf6ff
61d2:	7d3d           	        .short 0x7d3d
61d4:	0cad ff17 f676 7cce     cmpil #-15206794,%a5@(31950)
61dc:	0dca fef2      	        movepl %d6,%a2@(-270)
61e0:	f5f3           	        .short 0xf5f3
61e2:	7c56           	        moveq #86,%d6
61e4:	0eec           	        .short 0x0eec
61e6:	fecb           	        .short 0xfecb
61e8:	f576           	        .short 0xf576
61ea:	7bd6           	        .short 0x7bd6
61ec:	1013           	        moveb %a3@,%d0
61ee:	fea2           	        .short 0xfea2
61f0:	f4fe           	        .short 0xf4fe
61f2:	7b4e           	        .short 0x7b4e
61f4:	113e           	        .short 0x113e
61f6:	fe76           	        .short 0xfe76
61f8:	f48c           	        .short 0xf48c
61fa:	7abe           	        moveq #-66,%d5
61fc:	126e           	        .short 0x126e
61fe:	fe48           	        .short 0xfe48
6200:	f420           	        .short 0xf420
6202:	7a27           	        moveq #39,%d5
6204:	13a2 fe17      	        moveb %a2@-,%a1@(0000000000000017,%sp:l:8)
6208:	f3b9           	        .short 0xf3b9
620a:	7988           	        .short 0x7988
620c:	14da           	        moveb %a2@+,%a2@+
620e:	fde5           	        .short 0xfde5
6210:	f358           	        frestore %a0@+
6212:	78e2           	        moveq #-30,%d4
6214:	1616           	        moveb %fp@,%d3
6216:	fdb0           	        .short 0xfdb0
6218:	f2fc           	        .short 0xf2fc
621a:	7834           	        moveq #52,%d4
621c:	1757 fd79      	        moveb %sp@,%a3@(-647)
6220:	f2a6           	        .short 0xf2a6
6222:	777e           	        .short 0x777e
6224:	189b           	        moveb %a3@+,%a4@
6226:	fd40           	        .short 0xfd40
6228:	f256           	        .short 0xf256
622a:	76c2           	        moveq #-62,%d3
622c:	19e3           	        .short 0x19e3
622e:	fd05           	        .short 0xfd05
6230:	f20a           	        .short 0xf20a
6232:	75fe           	        .short 0x75fe
6234:	1b2f fcc9      	        moveb %sp@(-823),%a5@-
6238:	f1c5           	        .short 0xf1c5
623a:	7533           	        .short 0x7533
623c:	1c7f           	        .short 0x1c7f
623e:	fc8a           	        .short 0xfc8a
6240:	f184           	        .short 0xf184
6242:	7461           	        moveq #97,%d2
6244:	1dd2           	        .short 0x1dd2
6246:	fc4a           	        .short 0xfc4a
6248:	f149           	        .short 0xf149
624a:	7388           	        .short 0x7388
624c:	1f28 fc08      	        moveb %a0@(-1016),%sp@-
6250:	f113           	        psave %a3@
6252:	72a8           	        moveq #-88,%d1
6254:	2081           	        movel %d1,%a0@
6256:	fbc5           	        .short 0xfbc5
6258:	f0e1           	        .short 0xf0e1
625a:	71c1           	        .short 0x71c1
625c:	21dd fb80      	        movel %a5@+,0xfffffb80
6260:	f0b6           	        .short 0xf0b6
6262:	70d4           	        moveq #-44,%d0
6264:	233c fb3a f08f 	        movel #-80023409,%a1@-
626a:	6fe1           	        bles 0x624d
626c:	249e           	        movel %fp@+,%a2@
626e:	faf2           	        .short 0xfaf2
6270:	f06c           	        .short 0xf06c
6272:	6ee7           	        bgts 0x625b
6274:	2603           	        movel %d3,%d3
6276:	faa9           	        .short 0xfaa9
6278:	f04f           	        .short 0xf04f
627a:	6de7           	        blts 0x6263
627c:	276a fa5f f037 	        movel %a2@(-1441),%a3@(-4041)
6282:	6ce1           	        bges 0x6265
6284:	28d3           	        movel %a3@,%a4@+
6286:	fa15           	        .short 0xfa15
6288:	f023           	        .short 0xf023
628a:	6bd5           	        bmis 0x6261
628c:	2a3f           	        .short 0x2a3f
628e:	f9c9           	        .short 0xf9c9
6290:	f013           	        .short 0xf013
6292:	6ac4           	        bpls 0x6258
6294:	2bad f97c f009 	        movel %a5@(-1668),%a5@(0000000000000009,%sp:w)
629a:	69ac           	        bvss 0x6248
629c:	2d1c           	        movel %a4@+,%fp@-
629e:	f92f           	        .short 0xf92f
62a0:	f002           	        .short 0xf002
62a2:	688f           	        bvcs 0x6233
62a4:	2e8d           	        movel %a5,%sp@
62a6:	f8e1           	        .short 0xf8e1
62a8:	f000           	        .short 0xf000
62aa:	676d           	        beqs 0x6319
62ac:	3000           	        movew %d0,%d0
62ae:	f893           	        .short 0xf893
62b0:	f002           	        .short 0xf002
62b2:	6645           	        bnes 0x62f9
62b4:	3174 f844 f008 	        movew %a4@(0000000000000044,%sp:l),%a0@(-4088)
62ba:	6519           	        bcss 0x62d5
62bc:	32ea f7f5      	        movew %a2@(-2059),%a1@+
62c0:	f013           	        .short 0xf013
62c2:	63e7           	        blss 0x62ab
62c4:	3460           	        moveaw %a0@-,%a2
62c6:	f7a6           	        .short 0xf7a6
62c8:	f021           	        .short 0xf021
62ca:	62b1           	        bhis 0x627d
62cc:	35d7           	        .short 0x35d7
62ce:	f757           	        .short 0xf757
62d0:	f033           	        .short 0xf033
62d2:	6176           	        bsrs 0x634a
62d4:	3750 f708      	        movew %a0@,%a3@(-2296)
62d8:	f048           	        .short 0xf048
62da:	6036           	        bras 0x6312
62dc:	38c8           	        movew %a0,%a4@+
62de:	f6b9           	        .short 0xf6b9
62e0:	f062           	        .short 0xf062
62e2:	5ef2 3a41      	        sgt %a2@(0000000000000041,%d3:l:2)
62e6:	f66b           	        .short 0xf66b
62e8:	f07e           	        .short 0xf07e
62ea:	5daa 3bbb      	        subql #6,%a2@(15291)
62ee:	f61d           	        .short 0xf61d
62f0:	f09e           	        .short 0xf09e
62f2:	5c5e           	        addqw #6,%fp@+
62f4:	3d34 f5cf f0c2 5b0f     movew @(0000000000000000)@(fffffffff0c25b0f),%fp@-
62fc:	3eae f582      	        movew %fp@(-2686),%sp@
6300:	f0e8           	        .short 0xf0e8
6302:	59bb           	        .short 0x59bb
6304:	4027           	        negxb %sp@-
6306:	f536           	        .short 0xf536
6308:	f112           	        psave %a2@
630a:	5864           	        addqw #4,%a4@-
630c:	41a0           	        chkw %a0@-,%d0
630e:	f4ea           	        .short 0xf4ea
6310:	f13f           	        .short 0xf13f
6312:	570a           	        subqb #3,%a2
6314:	4318           	        chkl %a0@+,%d1
6316:	f4a0           	        .short 0xf4a0
6318:	f16e 55ac      	        prestore %fp@(21932)
631c:	448f           	        .short 0x448f
631e:	f457           	        .short 0xf457
6320:	f1a0           	        .short 0xf1a0
6322:	544b           	        addqw #2,%a3
6324:	4605           	        notb %d5
6326:	f40f           	        .short 0xf40f
6328:	f1d5           	        .short 0xf1d5
632a:	52e8 477b      	        shi %a0@(18299)
632e:	f3c9           	        .short 0xf3c9
6330:	f20c           	        .short 0xf20c
6332:	5182           	        subql #8,%d2
6334:	48ef f384 f245 	        moveml %d2/%d7-%a1/%a4-%sp,%sp@(-3515)
633a:	5019           	        addqb #8,%a1@+
633c:	4a61           	        tstw %a1@-
633e:	f340           	        .short 0xf340
6340:	f281 4eae      	        fbeq 0xb1f0
6344:	4bd2           	        lea %a2@,%a5
6346:	f2ff           	        .short 0xf2ff
6348:	f2bf           	        .short 0xf2bf
634a:	4d41           	        .short 0x4d41
634c:	4d41           	        .short 0x4d41
634e:	f2bf           	        .short 0xf2bf
6350:	f2ff           	        .short 0xf2ff
6352:	4bd2           	        lea %a2@,%a5
6354:	4eae f281      	        jsr %fp@(-3455)
6358:	f340           	        .short 0xf340
635a:	4a61           	        tstw %a1@-
635c:	5019           	        addqb #8,%a1@+
635e:	f245           	        .short 0xf245
6360:	f384           	        .short 0xf384
6362:	48ef 5182 f20c 	        moveml %d1/%d7-%a0/%a4/%fp,%sp@(-3572)
6368:	f3c9           	        .short 0xf3c9
636a:	477b           	        .short 0x477b
636c:	52e8 f1d5      	        shi %a0@(-3627)
6370:	f40f           	        .short 0xf40f
6372:	4605           	        notb %d5
6374:	544b           	        addqw #2,%a3
6376:	f1a0           	        .short 0xf1a0
6378:	f457           	        .short 0xf457
637a:	448f           	        .short 0x448f
637c:	55ac f16e      	        subql #2,%a4@(-3730)
6380:	f4a0           	        .short 0xf4a0
6382:	4318           	        chkl %a0@+,%d1
6384:	570a           	        subqb #3,%a2
6386:	f13f           	        .short 0xf13f
6388:	f4ea           	        .short 0xf4ea
638a:	41a0           	        chkw %a0@-,%d0
638c:	5864           	        addqw #4,%a4@-
638e:	f112           	        psave %a2@
6390:	f536           	        .short 0xf536
6392:	4027           	        negxb %sp@-
6394:	59bb           	        .short 0x59bb
6396:	f0e8           	        .short 0xf0e8
6398:	f582           	        .short 0xf582
639a:	3eae 5b0f      	        movew %fp@(23311),%sp@
639e:	f0c2 f5cf 3d34 	        pbls 0xf5cfa0d4
63a4:	5c5e           	        addqw #6,%fp@+
63a6:	f09e           	        .short 0xf09e
63a8:	f61d           	        .short 0xf61d
63aa:	3bbb 5daa f07e 	        movew %zpc@(fffffffffffff07e,%d5:l:4)@(fffffffffffff66b),%a5@(0000000000000041,%d3:l:2)
63b0:	f66b 3a41 
63b4:	5ef2 f062      	        sgt %a2@(0000000000000062,%sp:w)
63b8:	f6b9           	        .short 0xf6b9
63ba:	38c8           	        movew %a0,%a4@+
63bc:	6036           	        bras 0x63f4
63be:	f048           	        .short 0xf048
63c0:	f708           	        .short 0xf708
63c2:	3750 6176      	        movew %a0@,%a3@(24950)
63c6:	f033           	        .short 0xf033
63c8:	f757           	        .short 0xf757
63ca:	35d7           	        .short 0x35d7
63cc:	62b1           	        bhis 0x637f
63ce:	f021           	        .short 0xf021
63d0:	f7a6           	        .short 0xf7a6
63d2:	3460           	        moveaw %a0@-,%a2
63d4:	63e7           	        blss 0x63bd
63d6:	f013           	        .short 0xf013
63d8:	f7f5           	        .short 0xf7f5
63da:	32ea 6519      	        movew %a2@(25881),%a1@+
63de:	f008           	        .short 0xf008
63e0:	f844           	        .short 0xf844
63e2:	3174 6645 f002 	        movew %a4@(0000000000000045,%d6:w:8),%a0@(-4094)
63e8:	f893           	        .short 0xf893
63ea:	3000           	        movew %d0,%d0
63ec:	676d           	        beqs 0x645b
63ee:	f000           	        .short 0xf000
63f0:	f8e1           	        .short 0xf8e1
63f2:	2e8d           	        movel %a5,%sp@
63f4:	688f           	        bvcs 0x6385
63f6:	f002           	        .short 0xf002
63f8:	f92f           	        .short 0xf92f
63fa:	2d1c           	        movel %a4@+,%fp@-
63fc:	69ac           	        bvss 0x63aa
63fe:	f009           	        .short 0xf009
6400:	f97c           	        .short 0xf97c
6402:	2bad 6ac4 f013 	        movel %a5@(27332),%a5@(0000000000000013,%sp:w)
6408:	f9c9           	        .short 0xf9c9
640a:	2a3f           	        .short 0x2a3f
640c:	6bd5           	        bmis 0x63e3
640e:	f023           	        .short 0xf023
6410:	fa15           	        .short 0xfa15
6412:	28d3           	        movel %a3@,%a4@+
6414:	6ce1           	        bges 0x63f7
6416:	f037           	        .short 0xf037
6418:	fa5f           	        .short 0xfa5f
641a:	276a 6de7 f04f 	        movel %a2@(28135),%a3@(-4017)
6420:	faa9           	        .short 0xfaa9
6422:	2603           	        movel %d3,%d3
6424:	6ee7           	        bgts 0x640d
6426:	f06c           	        .short 0xf06c
6428:	faf2           	        .short 0xfaf2
642a:	249e           	        movel %fp@+,%a2@
642c:	6fe1           	        bles 0x640f
642e:	f08f fb3a      	        pbcc 0x5f6a
6432:	233c 70d4 f0b6 	        movel #1893003446,%a1@-
6438:	fb80           	        .short 0xfb80
643a:	21dd 71c1      	        movel %a5@+,0x71c1
643e:	f0e1           	        .short 0xf0e1
6440:	fbc5           	        .short 0xfbc5
6442:	2081           	        movel %d1,%a0@
6444:	72a8           	        moveq #-88,%d1
6446:	f113           	        psave %a3@
6448:	fc08           	        .short 0xfc08
644a:	1f28 7388      	        moveb %a0@(29576),%sp@-
644e:	f149           	        .short 0xf149
6450:	fc4a           	        .short 0xfc4a
6452:	1dd2           	        .short 0x1dd2
6454:	7461           	        moveq #97,%d2
6456:	f184           	        .short 0xf184
6458:	fc8a           	        .short 0xfc8a
645a:	1c7f           	        .short 0x1c7f
645c:	7533           	        .short 0x7533
645e:	f1c5           	        .short 0xf1c5
6460:	fcc9           	        .short 0xfcc9
6462:	1b2f 75fe      	        moveb %sp@(30206),%a5@-
6466:	f20a           	        .short 0xf20a
6468:	fd05           	        .short 0xfd05
646a:	19e3           	        .short 0x19e3
646c:	76c2           	        moveq #-62,%d3
646e:	f256           	        .short 0xf256
6470:	fd40           	        .short 0xfd40
6472:	189b           	        moveb %a3@+,%a4@
6474:	777e           	        .short 0x777e
6476:	f2a6           	        .short 0xf2a6
6478:	fd79           	        .short 0xfd79
647a:	1757 7834      	        moveb %sp@,%a3@(30772)
647e:	f2fc           	        .short 0xf2fc
6480:	fdb0           	        .short 0xfdb0
6482:	1616           	        moveb %fp@,%d3
6484:	78e2           	        moveq #-30,%d4
6486:	f358           	        frestore %a0@+
6488:	fde5           	        .short 0xfde5
648a:	14da           	        moveb %a2@+,%a2@+
648c:	7988           	        .short 0x7988
648e:	f3b9           	        .short 0xf3b9
6490:	fe17           	        .short 0xfe17
6492:	13a2 7a27      	        moveb %a2@-,%a1@(0000000000000027,%d7:l:2)
6496:	f420           	        .short 0xf420
6498:	fe48           	        .short 0xfe48
649a:	126e           	        .short 0x126e
649c:	7abe           	        moveq #-66,%d5
649e:	f48c           	        .short 0xf48c
64a0:	fe76           	        .short 0xfe76
64a2:	113e           	        .short 0x113e
64a4:	7b4e           	        .short 0x7b4e
64a6:	f4fe           	        .short 0xf4fe
64a8:	fea2           	        .short 0xfea2
64aa:	1013           	        moveb %a3@,%d0
64ac:	7bd6           	        .short 0x7bd6
64ae:	f576           	        .short 0xf576
64b0:	fecb           	        .short 0xfecb
64b2:	0eec           	        .short 0x0eec
64b4:	7c56           	        moveq #86,%d6
64b6:	f5f3           	        .short 0xf5f3
64b8:	fef2           	        .short 0xfef2
64ba:	0dca 7cce      	        movepl %d6,%a2@(31950)
64be:	f676           	        .short 0xf676
64c0:	ff17           	        .short 0xff17
64c2:	0cad 7d3d f6ff ff39     cmpil #2101212927,%a5@(-199)
64ca:	0b94           	        bclr %d5,%a4@
64cc:	7da5           	        .short 0x7da5
64ce:	f78e           	        .short 0xf78e
64d0:	ff58           	        .short 0xff58
64d2:	0a80 7e05 f822 	        eoril #2114320418,%d0
64d8:	ff75           	        .short 0xff75
64da:	0972 7e5d      	        bchg %d4,%a2@(000000000000005d,%d7:l:8)
64de:	f8bd           	        .short 0xf8bd
64e0:	ff8f           	        .short 0xff8f
64e2:	0868 7eac f95d 	        bchg #-84,%a0@(-1699)
64e8:	ffa7           	        .short 0xffa7
64ea:	0764           	        bchg %d3,%a4@-
64ec:	7ef3           	        moveq #-13,%d7
64ee:	fa02           	        .short 0xfa02
64f0:	ffbc           	        .short 0xffbc
64f2:	0664 7f32      	        addiw #32562,%a4@-
64f6:	faae           	        .short 0xfaae
64f8:	ffce           	        .short 0xffce
64fa:	056a 7f69      	        bchg %d2,%a2@(32617)
64fe:	fb5f           	        .short 0xfb5f
6500:	ffdd           	        .short 0xffdd
6502:	0476 7f97 fc17 	        subiw #32663,%fp@(0000000000000017,%sp:l:4)
6508:	ffea           	        .short 0xffea
650a:	0386           	        bclr %d1,%d6
650c:	7fbd           	        .short 0x7fbd
650e:	fcd3           	        .short 0xfcd3
6510:	fff3           	        .short 0xfff3
6512:	029c 7fda fd96 	        andil #2145058198,%a4@+
6518:	fffa           	        .short 0xfffa
651a:	01b8 7fef      	        bclr %d0,0x7fef
651e:	fe5e           	        .short 0xfe5e
6520:	ffff           	        .short 0xffff
6522:	00d9           	        .short 0x00d9
6524:	7ffc           	        .short 0x7ffc
6526:	ff2c           	        .short 0xff2c
6528:	0001 bffe      	        orib #-2,%d1
652c:	0000 11f0      	        orib #-16,%d0
6530:	0000 3e44      	        orib #68,%d0
6534:	0000 3ea2      	        orib #-94,%d0
6538:	0000 3eb0      	        orib #-80,%d0
653c:	0000 3ebe      	        orib #-66,%d0
6540:	0000 3ecc      	        orib #-52,%d0
6544:	0000 3ece      	        orib #-50,%d0
6548:	0000 3ed0      	        orib #-48,%d0
654c:	0000 3ed2      	        orib #-46,%d0
6550:	0000 3ed4      	        orib #-44,%d0
6554:	0000 3ee2      	        orib #-30,%d0
6558:	0000 3ef0      	        orib #-16,%d0
655c:	0000 3ef0      	        orib #-16,%d0
6560:	0000 3ef0      	        orib #-16,%d0
6564:	0000 3ef2      	        orib #-14,%d0
6568:	0000 3ef0      	        orib #-16,%d0
656c:	0000 3ef0      	        orib #-16,%d0
6570:	0000 3ef0      	        orib #-16,%d0
6574:	0000 3ef0      	        orib #-16,%d0
6578:	0000 3ef0      	        orib #-16,%d0
657c:	0000 3ef0      	        orib #-16,%d0
6580:	0000 3ef0      	        orib #-16,%d0
6584:	0000 3ef0      	        orib #-16,%d0
6588:	0000 3ef4      	        orib #-12,%d0
658c:	0000 3ef6      	        orib #-10,%d0
6590:	0000 4c1e      	        orib #30,%d0
6594:	0000 4e3a      	        orib #58,%d0
6598:	0000 5012      	        orib #18,%d0
659c:	0000 5044      	        orib #68,%d0
65a0:	0000 5110      	        orib #16,%d0
65a4:	0000 5020      	        orib #32,%d0
65a8:	0000 3ef8      	        orib #-8,%d0
65ac:	0000 3efa      	        orib #-6,%d0
65b0:	0000 3efc      	        orib #-4,%d0
65b4:	0000 3efe      	        orib #-2,%d0
65b8:	0000 3f00      	        orib #0,%d0
65bc:	0000 3f02      	        orib #2,%d0
65c0:	0000 3f04      	        orib #4,%d0
65c4:	0000 3f06      	        orib #6,%d0
65c8:	0000 3f08      	        orib #8,%d0
65cc:	0000 3f0a      	        orib #10,%d0
65d0:	0000 3f0c      	        orib #12,%d0
65d4:	0000 3f0e      	        orib #14,%d0
65d8:	0000 3f10      	        orib #16,%d0
65dc:	0000 3f12      	        orib #18,%d0
65e0:	0000 3f14      	        orib #20,%d0
65e4:	0000 3f16      	        orib #22,%d0
65e8:	0000 3ef0      	        orib #-16,%d0
65ec:	0000 3ef0      	        orib #-16,%d0
65f0:	0000 3ef0      	        orib #-16,%d0
65f4:	0000 3ef0      	        orib #-16,%d0
65f8:	0000 3ef0      	        orib #-16,%d0
65fc:	0000 3ef0      	        orib #-16,%d0
6600:	0000 3ef0      	        orib #-16,%d0
6604:	0000 3ef0      	        orib #-16,%d0
6608:	0000 3ef0      	        orib #-16,%d0
660c:	0000 3ef0      	        orib #-16,%d0
6610:	0000 3ef0      	        orib #-16,%d0
6614:	0000 3ef0      	        orib #-16,%d0
6618:	0000 3ef0      	        orib #-16,%d0
661c:	0000 3ef0      	        orib #-16,%d0
6620:	0000 3ef0      	        orib #-16,%d0
6624:	0000 3ef0      	        orib #-16,%d0
6628:	434f           	        .short 0x434f
662a:	5059           	        addqw #8,%a1@+
662c:	5249           	        addqw #1,%a1
662e:	4748           	        .short 0x4748
6630:	5420           	        addqb #2,%a0@-
6632:	2843           	        moveal %d3,%a4
6634:	2920           	        movel %a0@-,%a4@-
6636:	3139 3833 2c31 	        movew 0x38332c31,%a0@-
663c:	3938 3420      	        movew 0x3420,%a4@-
6640:	4449           	        .short 0x4449
6642:	4749           	        .short 0x4749
6644:	5441           	        addqw #2,%d1
6646:	4c20           	        .short 0x4c20
6648:	4551           	        .short 0x4551
664a:	5549           	        subqw #2,%a1
664c:	504d           	        addqw #8,%a5
664e:	454e           	        .short 0x454e
6650:	5420           	        addqb #2,%a0@-
6652:	434f           	        .short 0x434f
6654:	5250           	        addqw #1,%a0@
6656:	4f52           	        .short 0x4f52
6658:	4154           	        .short 0x4154
665a:	494f           	        .short 0x494f
665c:	4e2c           	        .short 0x4e2c
665e:	204d           	        moveal %a5,%a0
6660:	4159           	        .short 0x4159
6662:	4e41           	        trap #1
6664:	5244           	        addqw #1,%d4
6666:	2c20           	        movel %a0@-,%d6
6668:	4d41           	        .short 0x4d41
666a:	5353           	        subqw #1,%a3@
666c:	4143           	        .short 0x4143
666e:	4855           	        pea %a5@
6670:	5345           	        subqw #1,%d5
6672:	5454           	        addqw #2,%a4@
6674:	5320           	        subqb #1,%a0@-
6676:	3031 3735 3420 5448     movew %a1@(0000000034205448)@(0000000000000000,%d3:w:8),%d0
667e:	4953           	        .short 0x4953
6680:	2053           	        moveal %a3@,%a0
6682:	4f46           	        .short 0x4f46
6684:	5457           	        addqw #2,%sp@
6686:	4152           	        .short 0x4152
6688:	4520           	        chkl %a0@-,%d2
668a:	4953           	        .short 0x4953
668c:	2046           	        moveal %d6,%a0
668e:	5552           	        subqw #2,%a2@
6690:	4e49           	        trap #9
6692:	5348           	        subqw #1,%a0
6694:	4544           	        .short 0x4544
6696:	2020           	        movel %a0@-,%d0
6698:	554e           	        subqw #2,%fp
669a:	4445           	        negw %d5
669c:	5220           	        addqb #1,%a0@-
669e:	4120           	        chkl %a0@-,%d0
66a0:	4c49           	        .short 0x4c49
66a2:	4345           	        .short 0x4345
66a4:	4e53 4520      	        linkw %a3,#17696
66a8:	464f           	        .short 0x464f
66aa:	5220           	        addqb #1,%a0@-
66ac:	5553           	        subqw #2,%a3@
66ae:	4520           	        chkl %a0@-,%d2
66b0:	4f4e           	        .short 0x4f4e
66b2:	4c59           	        .short 0x4c59
66b4:	204f           	        moveal %sp,%a0
66b6:	4e20           	        .short 0x4e20
66b8:	4120           	        chkl %a0@-,%d0
66ba:	5349           	        subqw #1,%a1
66bc:	4e47           	        trap #7
66be:	4c45           	        .short 0x4c45
66c0:	2043           	        moveal %d3,%a0
66c2:	4f4d           	        .short 0x4f4d
66c4:	5055           	        addqw #8,%a5@
66c6:	5445           	        addqw #2,%d5
66c8:	5220           	        addqb #1,%a0@-
66ca:	2053           	        moveal %a3@,%a0
66cc:	5953           	        subqw #4,%a3@
66ce:	5445           	        addqw #2,%d5
66d0:	4d20           	        chkl %a0@-,%d6
66d2:	414e           	        .short 0x414e
66d4:	4420           	        negb %a0@-
66d6:	4d41           	        .short 0x4d41
66d8:	5920           	        subqb #4,%a0@-
66da:	4245           	        clrw %d5
66dc:	2020           	        movel %a0@-,%d0
66de:	434f           	        .short 0x434f
66e0:	5049           	        addqw #8,%a1
66e2:	4544           	        .short 0x4544
66e4:	204f           	        moveal %sp,%a0
66e6:	4e4c           	        trap #12
66e8:	5920           	        subqb #4,%a0@-
66ea:	5749           	        subqw #3,%a1
66ec:	5448           	        addqw #2,%a0
66ee:	2020           	        movel %a0@-,%d0
66f0:	5448           	        addqw #2,%a0
66f2:	4520           	        chkl %a0@-,%d2
66f4:	494e           	        .short 0x494e
66f6:	434c           	        .short 0x434c
66f8:	5553           	        subqw #2,%a3@
66fa:	494f           	        .short 0x494f
66fc:	4e20           	        .short 0x4e20
66fe:	4f46           	        .short 0x4f46
6700:	2054           	        moveal %a4@,%a0
6702:	4845           	        swap %d5
6704:	4142           	        .short 0x4142
6706:	4f56           	        .short 0x4f56
6708:	4520           	        chkl %a0@-,%d2
670a:	434f           	        .short 0x434f
670c:	5059           	        addqw #8,%a1@+
670e:	5249           	        addqw #1,%a1
6710:	4748           	        .short 0x4748
6712:	5420           	        addqb #2,%a0@-
6714:	4e4f           	        trap #15
6716:	5449           	        addqw #2,%a1
6718:	4345           	        .short 0x4345
671a:	2e20           	        movel %a0@-,%d7
671c:	2054           	        moveal %a4@,%a0
671e:	4849           	        .short 0x4849
6720:	5320           	        subqb #1,%a0@-
6722:	534f           	        subqw #1,%sp
6724:	4654           	        notw %a4@
6726:	5741           	        subqw #3,%d1
6728:	5245           	        addqw #1,%d5
672a:	2c20           	        movel %a0@-,%d6
672c:	4f52           	        .short 0x4f52
672e:	2041           	        moveal %d1,%a0
6730:	4e59           	        unlk %a1
6732:	204f           	        moveal %sp,%a0
6734:	5448           	        addqw #2,%a0
6736:	4552           	        .short 0x4552
6738:	2043           	        moveal %d3,%a0
673a:	4f50           	        .short 0x4f50
673c:	4945           	        .short 0x4945
673e:	5320           	        subqb #1,%a0@-
6740:	5448           	        addqw #2,%a0
6742:	4552           	        .short 0x4552
6744:	454f           	        .short 0x454f
6746:	462c 204d      	        notb %a4@(8269)
674a:	4159           	        .short 0x4159
674c:	204e           	        moveal %fp,%a0
674e:	4f54           	        .short 0x4f54
6750:	2042           	        moveal %d2,%a0
6752:	4520           	        chkl %a0@-,%d2
6754:	5052           	        addqw #8,%a2@
6756:	4f56           	        .short 0x4f56
6758:	4944           	        .short 0x4944
675a:	4544           	        .short 0x4544
675c:	204f           	        moveal %sp,%a0
675e:	5220           	        addqb #1,%a0@-
6760:	4f54           	        .short 0x4f54
6762:	4845           	        swap %d5
6764:	5257           	        addqw #1,%sp@
6766:	4953           	        .short 0x4953
6768:	4520           	        chkl %a0@-,%d2
676a:	4d41           	        .short 0x4d41
676c:	4445           	        negw %d5
676e:	2041           	        moveal %d1,%a0
6770:	5641           	        addqw #3,%d1
6772:	494c           	        .short 0x494c
6774:	4142           	        .short 0x4142
6776:	4c45           	        .short 0x4c45
6778:	2054           	        moveal %a4@,%a0
677a:	4f20           	        chkl %a0@-,%d7
677c:	414e           	        .short 0x414e
677e:	5920           	        subqb #4,%a0@-
6780:	4f54           	        .short 0x4f54
6782:	4845           	        swap %d5
6784:	5220           	        addqb #1,%a0@-
6786:	5045           	        addqw #8,%d5
6788:	5253           	        addqw #1,%a3@
678a:	4f4e           	        .short 0x4f4e
678c:	4558           	        .short 0x4558
678e:	4345           	        .short 0x4345
6790:	5054           	        addqw #8,%a4@
6792:	2046           	        moveal %d6,%a0
6794:	4f52           	        .short 0x4f52
6796:	2055           	        moveal %a5@,%a0
6798:	5345           	        subqw #1,%d5
679a:	204f           	        moveal %sp,%a0
679c:	4e20           	        .short 0x4e20
679e:	5355           	        subqw #1,%a5@
67a0:	4348           	        .short 0x4348
67a2:	2053           	        moveal %a3@,%a0
67a4:	5953           	        subqw #4,%a3@
67a6:	5445           	        addqw #2,%d5
67a8:	4d20           	        chkl %a0@-,%d6
67aa:	414e           	        .short 0x414e
67ac:	4420           	        negb %a0@-
67ae:	544f           	        addqw #2,%sp
67b0:	204f           	        moveal %sp,%a0
67b2:	4e45           	        trap #5
67b4:	2057           	        moveal %sp@,%a0
67b6:	484f           	        .short 0x484f
67b8:	2041           	        moveal %d1,%a0
67ba:	4752           	        .short 0x4752
67bc:	4545           	        .short 0x4545
67be:	5320           	        subqb #1,%a0@-
67c0:	544f           	        addqw #2,%sp
67c2:	2054           	        moveal %a4@,%a0
67c4:	4845           	        swap %d5
67c6:	5345           	        subqw #1,%d5
67c8:	204c           	        moveal %a4,%a0
67ca:	4943           	        .short 0x4943
67cc:	454e           	        .short 0x454e
67ce:	5345           	        subqw #1,%d5
67d0:	2054           	        moveal %a4@,%a0
67d2:	4552           	        .short 0x4552
67d4:	4d53           	        .short 0x4d53
67d6:	2e20           	        movel %a0@-,%d7
67d8:	2054           	        moveal %a4@,%a0
67da:	4954           	        .short 0x4954
67dc:	4c45           	        .short 0x4c45
67de:	2054           	        moveal %a4@,%a0
67e0:	4f20           	        chkl %a0@-,%d7
67e2:	414e           	        .short 0x414e
67e4:	4420           	        negb %a0@-
67e6:	4f57           	        .short 0x4f57
67e8:	4e45           	        trap #5
67ea:	5253           	        addqw #1,%a3@
67ec:	4849           	        .short 0x4849
67ee:	5020           	        addqb #8,%a0@-
67f0:	4f46           	        .short 0x4f46
67f2:	2054           	        moveal %a4@,%a0
67f4:	4845           	        swap %d5
67f6:	2020           	        movel %a0@-,%d0
67f8:	534f           	        subqw #1,%sp
67fa:	4654           	        notw %a4@
67fc:	5741           	        subqw #3,%d1
67fe:	5245           	        addqw #1,%d5
6800:	2020           	        movel %a0@-,%d0
6802:	5348           	        subqw #1,%a0
6804:	414c           	        .short 0x414c
6806:	4c20           	        .short 0x4c20
6808:	4154           	        .short 0x4154
680a:	2041           	        moveal %d1,%a0
680c:	4c4c           	        .short 0x4c4c
680e:	2054           	        moveal %a4@,%a0
6810:	494d           	        .short 0x494d
6812:	4553           	        .short 0x4553
6814:	5245           	        addqw #1,%d5
6816:	4d41           	        .short 0x4d41
6818:	494e           	        .short 0x494e
681a:	2049           	        moveal %a1,%a0
681c:	4e20           	        .short 0x4e20
681e:	4445           	        negw %d5
6820:	432e 2020      	        chkl %fp@(8224),%d1
6824:	5448           	        addqw #2,%a0
6826:	4520           	        chkl %a0@-,%d2
6828:	494e           	        .short 0x494e
682a:	464f           	        .short 0x464f
682c:	524d           	        addqw #1,%a5
682e:	4154           	        .short 0x4154
6830:	494f           	        .short 0x494f
6832:	4e20           	        .short 0x4e20
6834:	494e           	        .short 0x494e
6836:	2054           	        moveal %a4@,%a0
6838:	4849           	        .short 0x4849
683a:	5320           	        subqb #1,%a0@-
683c:	534f           	        subqw #1,%sp
683e:	4654           	        notw %a4@
6840:	5741           	        subqw #3,%d1
6842:	5245           	        addqw #1,%d5
6844:	2049           	        moveal %a1,%a0
6846:	5320           	        subqb #1,%a0@-
6848:	5355           	        subqw #1,%a5@
684a:	424a           	        .short 0x424a
684c:	4543           	        .short 0x4543
684e:	5420           	        addqb #2,%a0@-
6850:	544f           	        addqw #2,%sp
6852:	2043           	        moveal %d3,%a0
6854:	4841           	        swap %d1
6856:	4e47           	        trap #7
6858:	4520           	        chkl %a0@-,%d2
685a:	5749           	        subqw #3,%a1
685c:	5448           	        addqw #2,%a0
685e:	4f55           	        .short 0x4f55
6860:	5420           	        addqb #2,%a0@-
6862:	4e4f           	        trap #15
6864:	5449           	        addqw #2,%a1
6866:	4345           	        .short 0x4345
6868:	2053           	        moveal %a3@,%a0
686a:	484f           	        .short 0x484f
686c:	554c           	        subqw #2,%a4
686e:	4420           	        negb %a0@-
6870:	204e           	        moveal %fp,%a0
6872:	4f54           	        .short 0x4f54
6874:	2042           	        moveal %d2,%a0
6876:	4520           	        chkl %a0@-,%d2
6878:	434f           	        .short 0x434f
687a:	4e53 5452      	        linkw %a3,#21586
687e:	5545           	        subqw #2,%d5
6880:	4420           	        negb %a0@-
6882:	2041           	        moveal %d1,%a0
6884:	5320           	        subqb #1,%a0@-
6886:	4120           	        chkl %a0@-,%d0
6888:	434f           	        .short 0x434f
688a:	4d4d           	        .short 0x4d4d
688c:	4954           	        .short 0x4954
688e:	4d45           	        .short 0x4d45
6890:	4e54 2020      	        linkw %a4,#8224
6894:	4259           	        clrw %a1@+
6896:	2044           	        moveal %d4,%a0
6898:	4947           	        .short 0x4947
689a:	4954           	        .short 0x4954
689c:	414c           	        .short 0x414c
689e:	2020           	        movel %a0@-,%d0
68a0:	4551           	        .short 0x4551
68a2:	5549           	        subqw #2,%a1
68a4:	504d           	        addqw #8,%a5
68a6:	454e           	        .short 0x454e
68a8:	5420           	        addqb #2,%a0@-
68aa:	434f           	        .short 0x434f
68ac:	5250           	        addqw #1,%a0@
68ae:	4f52           	        .short 0x4f52
68b0:	4154           	        .short 0x4154
68b2:	494f           	        .short 0x494f
68b4:	4e2e           	        .short 0x4e2e
68b6:	2020           	        movel %a0@-,%d0
68b8:	4445           	        negw %d5
68ba:	4320           	        chkl %a0@-,%d1
68bc:	4153           	        .short 0x4153
68be:	5355           	        subqw #1,%a5@
68c0:	4d45           	        .short 0x4d45
68c2:	5320           	        subqb #1,%a0@-
68c4:	204e           	        moveal %fp,%a0
68c6:	4f20           	        chkl %a0@-,%d7
68c8:	5245           	        addqw #1,%d5
68ca:	5350           	        subqw #1,%a0@
68cc:	4f4e           	        .short 0x4f4e
68ce:	5349           	        subqw #1,%a1
68d0:	4249           	        .short 0x4249
68d2:	4c49           	        .short 0x4c49
68d4:	5459           	        addqw #2,%a1@+
68d6:	2020           	        movel %a0@-,%d0
68d8:	464f           	        .short 0x464f
68da:	5220           	        addqb #1,%a0@-
68dc:	2054           	        moveal %a4@,%a0
68de:	4845           	        swap %d5
68e0:	2055           	        moveal %a5@,%a0
68e2:	5345           	        subqw #1,%d5
68e4:	204f           	        moveal %sp,%a0
68e6:	5220           	        addqb #1,%a0@-
68e8:	2052           	        moveal %a2@,%a0
68ea:	454c           	        .short 0x454c
68ec:	4941           	        .short 0x4941
68ee:	4249           	        .short 0x4249
68f0:	4c49           	        .short 0x4c49
68f2:	5459           	        addqw #2,%a1@+
68f4:	204f           	        moveal %sp,%a0
68f6:	4620           	        notb %a0@-
68f8:	4954           	        .short 0x4954
68fa:	5320           	        subqb #1,%a0@-
68fc:	534f           	        subqw #1,%sp
68fe:	4654           	        notw %a4@
6900:	5741           	        subqw #3,%d1
6902:	5245           	        addqw #1,%d5
6904:	204f           	        moveal %sp,%a0
6906:	4e20           	        .short 0x4e20
6908:	4551           	        .short 0x4551
690a:	5549           	        subqw #2,%a1
690c:	504d           	        addqw #8,%a5
690e:	454e           	        .short 0x454e
6910:	5420           	        addqb #2,%a0@-
6912:	5748           	        subqw #3,%a0
6914:	4943           	        .short 0x4943
6916:	4820           	        nbcd %a0@-
6918:	4953           	        .short 0x4953
691a:	204e           	        moveal %fp,%a0
691c:	4f54           	        .short 0x4f54
691e:	2053           	        moveal %a3@,%a0
6920:	5550           	        subqw #2,%a0@
6922:	504c           	        addqw #8,%a4
6924:	4945           	        .short 0x4945
6926:	4420           	        negb %a0@-
6928:	4259           	        clrw %a1@+
692a:	2044           	        moveal %d4,%a0
692c:	4543           	        .short 0x4543
692e:	2e20           	        movel %a0@-,%d7
